Memory Forensics Report — 20260507_183536
Dump: D:/volatility3-develop/memory_forensics_project/dumps/MemoryDump_Lab1.raw
============================================================


############################################################
# TAB: Process List
############################################################


============================================================
  PROCESS LIST (pslist)
  Dump: MemoryDump_Lab1.raw
  Time: 2026-05-07 18:20:58
============================================================

Offset(V)          Name                    PID   PPID   Thds     Hnds   Sess  Wow64 Start                          Exit                          
------------------ -------------------- ------ ------ ------ -------- ------ ------ ------------------------------ ------------------------------
0xfffffa8000ca0040 System                    4      0     80      570 ------      0 2019-12-11 13:41:25 UTC+0000                                 
0xfffffa800148f040 smss.exe                248      4      3       37 ------      0 2019-12-11 13:41:25 UTC+0000                                 
0xfffffa800154f740 csrss.exe               320    312      9      457      0      0 2019-12-11 13:41:32 UTC+0000                                 
0xfffffa8000ca81e0 csrss.exe               368    360      7      199      1      0 2019-12-11 13:41:33 UTC+0000                                 
0xfffffa8001c45060 psxss.exe               376    248     18      786      0      0 2019-12-11 13:41:33 UTC+0000                                 
0xfffffa8001c5f060 winlogon.exe            416    360      4      118      1      0 2019-12-11 13:41:34 UTC+0000                                 
0xfffffa8001c5f630 wininit.exe             424    312      3       75      0      0 2019-12-11 13:41:34 UTC+0000                                 
0xfffffa8001c98530 services.exe            484    424     13      219      0      0 2019-12-11 13:41:35 UTC+0000                                 
0xfffffa8001ca0580 lsass.exe               492    424      9      764      0      0 2019-12-11 13:41:35 UTC+0000                                 
0xfffffa8001ca4b30 lsm.exe                 500    424     11      185      0      0 2019-12-11 13:41:35 UTC+0000                                 
0xfffffa8001cf4b30 svchost.exe             588    484     11      358      0      0 2019-12-11 13:41:39 UTC+0000                                 
0xfffffa8001d327c0 VBoxService.ex          652    484     13      137      0      0 2019-12-11 13:41:40 UTC+0000                                 
0xfffffa8001d49b30 svchost.exe             720    484      8      279      0      0 2019-12-11 13:41:41 UTC+0000                                 
0xfffffa8001d8c420 svchost.exe             816    484     23      569      0      0 2019-12-11 13:41:42 UTC+0000                                 
0xfffffa8001da5b30 svchost.exe             852    484     28      542      0      0 2019-12-11 13:41:43 UTC+0000                                 
0xfffffa8001da96c0 svchost.exe             876    484     32      941      0      0 2019-12-11 13:41:43 UTC+0000                                 
0xfffffa8001e1bb30 svchost.exe             472    484     19      476      0      0 2019-12-11 13:41:47 UTC+0000                                 
0xfffffa8001e50b30 svchost.exe            1044    484     14      366      0      0 2019-12-11 13:41:48 UTC+0000                                 
0xfffffa8001eba230 spoolsv.exe            1208    484     13      282      0      0 2019-12-11 13:41:51 UTC+0000                                 
0xfffffa8001eda060 svchost.exe            1248    484     19      313      0      0 2019-12-11 13:41:52 UTC+0000                                 
0xfffffa8001f58890 svchost.exe            1372    484     22      295      0      0 2019-12-11 13:41:54 UTC+0000                                 
0xfffffa8001f91b30 TCPSVCS.EXE            1416    484      4       97      0      0 2019-12-11 13:41:55 UTC+0000                                 
0xfffffa8000d3c400 sppsvc.exe             1508    484      4      141      0      0 2019-12-11 14:16:06 UTC+0000                                 
0xfffffa8001c38580 svchost.exe             948    484     13      322      0      0 2019-12-11 14:16:07 UTC+0000                                 
0xfffffa8002170630 wmpnetwk.exe           1856    484     16      451      0      0 2019-12-11 14:16:08 UTC+0000                                 
0xfffffa8001d376f0 SearchIndexer.          480    484     14      701      0      0 2019-12-11 14:16:09 UTC+0000                                 
0xfffffa8001eb47f0 taskhost.exe            296    484      8      151      1      0 2019-12-11 14:32:24 UTC+0000                                 
0xfffffa8001dfa910 dwm.exe                1988    852      5       72      1      0 2019-12-11 14:32:25 UTC+0000                                 
0xfffffa8002046960 explorer.exe            604   2016     33      927      1      0 2019-12-11 14:32:25 UTC+0000                                 
0xfffffa80021c75d0 VBoxTray.exe           1844    604     11      140      1      0 2019-12-11 14:32:35 UTC+0000                                 
0xfffffa80021da060 audiodg.exe            2064    816      6      131      0      0 2019-12-11 14:32:37 UTC+0000                                 
0xfffffa80022199e0 svchost.exe            2368    484      9      365      0      0 2019-12-11 14:32:51 UTC+0000                                 
0xfffffa8002222780 cmd.exe                1984    604      1       21      1      0 2019-12-11 14:34:54 UTC+0000                                 
0xfffffa8002227140 conhost.exe            2692    368      2       50      1      0 2019-12-11 14:34:54 UTC+0000                                 
0xfffffa80022bab30 mspaint.exe            2424    604      6      128      1      0 2019-12-11 14:35:14 UTC+0000                                 
0xfffffa8000eac770 svchost.exe            2660    484      6      100      0      0 2019-12-11 14:35:14 UTC+0000                                 
0xfffffa8001e68060 csrss.exe              2760   2680      7      172      2      0 2019-12-11 14:37:05 UTC+0000                                 
0xfffffa8000ecbb30 winlogon.exe           2808   2680      4      119      2      0 2019-12-11 14:37:05 UTC+0000                                 
0xfffffa8000f3aab0 taskhost.exe           2908    484      9      158      2      0 2019-12-11 14:37:13 UTC+0000                                 
0xfffffa8000f4db30 dwm.exe                3004    852      5       72      2      0 2019-12-11 14:37:14 UTC+0000                                 
0xfffffa8000f4c670 explorer.exe           2504   3000     34      825      2      0 2019-12-11 14:37:14 UTC+0000                                 
0xfffffa8000f9a4e0 VBoxTray.exe           2304   2504     14      144      2      0 2019-12-11 14:37:14 UTC+0000                                 
0xfffffa8000fff630 SearchProtocol         2524    480      7      226      2      0 2019-12-11 14:37:21 UTC+0000                                 
0xfffffa8000ecea60 SearchFilterHo         1720    480      5       90      0      0 2019-12-11 14:37:21 UTC+0000                                 
0xfffffa8001010b30 WinRAR.exe             1512   2504      6      207      2      0 2019-12-11 14:37:23 UTC+0000                                 
0xfffffa8001020b30 SearchProtocol         2868    480      8      279      0      0 2019-12-11 14:37:23 UTC+0000                                 
0xfffffa8001048060 DumpIt.exe              796    604      2       45      1      1 2019-12-11 14:37:54 UTC+0000                                 
0xfffffa800104a780 conhost.exe            2260    368      2       50      1      0 2019-12-11 14:37:54 UTC+0000                                 



============================================================
  PROCESS TREE (pstree)
  Dump: MemoryDump_Lab1.raw
  Time: 2026-05-07 18:21:04
============================================================

Name                                                  Pid   PPid   Thds   Hnds Time
-------------------------------------------------- ------ ------ ------ ------ ----
 0xfffffa8000f4c670:explorer.exe                     2504   3000     34    825 2019-12-11 14:37:14 UTC+0000
. 0xfffffa8000f9a4e0:VBoxTray.exe                    2304   2504     14    144 2019-12-11 14:37:14 UTC+0000
. 0xfffffa8001010b30:WinRAR.exe                      1512   2504      6    207 2019-12-11 14:37:23 UTC+0000
 0xfffffa8001c5f630:wininit.exe                       424    312      3     75 2019-12-11 13:41:34 UTC+0000
. 0xfffffa8001c98530:services.exe                     484    424     13    219 2019-12-11 13:41:35 UTC+0000
.. 0xfffffa8002170630:wmpnetwk.exe                   1856    484     16    451 2019-12-11 14:16:08 UTC+0000
.. 0xfffffa8001f91b30:TCPSVCS.EXE                    1416    484      4     97 2019-12-11 13:41:55 UTC+0000
.. 0xfffffa8001da96c0:svchost.exe                     876    484     32    941 2019-12-11 13:41:43 UTC+0000
.. 0xfffffa8001d327c0:VBoxService.ex                  652    484     13    137 2019-12-11 13:41:40 UTC+0000
.. 0xfffffa8000eac770:svchost.exe                    2660    484      6    100 2019-12-11 14:35:14 UTC+0000
.. 0xfffffa80022199e0:svchost.exe                    2368    484      9    365 2019-12-11 14:32:51 UTC+0000
.. 0xfffffa8001e50b30:svchost.exe                    1044    484     14    366 2019-12-11 13:41:48 UTC+0000
.. 0xfffffa8001d8c420:svchost.exe                     816    484     23    569 2019-12-11 13:41:42 UTC+0000
... 0xfffffa80021da060:audiodg.exe                   2064    816      6    131 2019-12-11 14:32:37 UTC+0000
.. 0xfffffa8001c38580:svchost.exe                     948    484     13    322 2019-12-11 14:16:07 UTC+0000
.. 0xfffffa8001eba230:spoolsv.exe                    1208    484     13    282 2019-12-11 13:41:51 UTC+0000
.. 0xfffffa8001d376f0:SearchIndexer.                  480    484     14    701 2019-12-11 14:16:09 UTC+0000
... 0xfffffa8000fff630:SearchProtocol                2524    480      7    226 2019-12-11 14:37:21 UTC+0000
... 0xfffffa8001020b30:SearchProtocol                2868    480      8    279 2019-12-11 14:37:23 UTC+0000
... 0xfffffa8000ecea60:SearchFilterHo                1720    480      5     90 2019-12-11 14:37:21 UTC+0000
.. 0xfffffa8000f3aab0:taskhost.exe                   2908    484      9    158 2019-12-11 14:37:13 UTC+0000
.. 0xfffffa8001cf4b30:svchost.exe                     588    484     11    358 2019-12-11 13:41:39 UTC+0000
.. 0xfffffa8001d49b30:svchost.exe                     720    484      8    279 2019-12-11 13:41:41 UTC+0000
.. 0xfffffa8001da5b30:svchost.exe                     852    484     28    542 2019-12-11 13:41:43 UTC+0000
... 0xfffffa8000f4db30:dwm.exe                       3004    852      5     72 2019-12-11 14:37:14 UTC+0000
... 0xfffffa8001dfa910:dwm.exe                       1988    852      5     72 2019-12-11 14:32:25 UTC+0000
.. 0xfffffa8001e1bb30:svchost.exe                     472    484     19    476 2019-12-11 13:41:47 UTC+0000
.. 0xfffffa8000d3c400:sppsvc.exe                     1508    484      4    141 2019-12-11 14:16:06 UTC+0000
.. 0xfffffa8001f58890:svchost.exe                    1372    484     22    295 2019-12-11 13:41:54 UTC+0000
.. 0xfffffa8001eda060:svchost.exe                    1248    484     19    313 2019-12-11 13:41:52 UTC+0000
.. 0xfffffa8001eb47f0:taskhost.exe                    296    484      8    151 2019-12-11 14:32:24 UTC+0000
. 0xfffffa8001ca0580:lsass.exe                        492    424      9    764 2019-12-11 13:41:35 UTC+0000
. 0xfffffa8001ca4b30:lsm.exe                          500    424     11    185 2019-12-11 13:41:35 UTC+0000
 0xfffffa800154f740:csrss.exe                         320    312      9    457 2019-12-11 13:41:32 UTC+0000
 0xfffffa8000ca0040:System                              4      0     80    570 2019-12-11 13:41:25 UTC+0000
. 0xfffffa800148f040:smss.exe                         248      4      3     37 2019-12-11 13:41:25 UTC+0000
.. 0xfffffa8001c45060:psxss.exe                       376    248     18    786 2019-12-11 13:41:33 UTC+0000
 0xfffffa8001c5f060:winlogon.exe                      416    360      4    118 2019-12-11 13:41:34 UTC+0000
 0xfffffa8000ca81e0:csrss.exe                         368    360      7    199 2019-12-11 13:41:33 UTC+0000
. 0xfffffa8002227140:conhost.exe                     2692    368      2     50 2019-12-11 14:34:54 UTC+0000
. 0xfffffa800104a780:conhost.exe                     2260    368      2     50 2019-12-11 14:37:54 UTC+0000
 0xfffffa8002046960:explorer.exe                      604   2016     33    927 2019-12-11 14:32:25 UTC+0000
. 0xfffffa80021c75d0:VBoxTray.exe                    1844    604     11    140 2019-12-11 14:32:35 UTC+0000
. 0xfffffa8002222780:cmd.exe                         1984    604      1     21 2019-12-11 14:34:54 UTC+0000
. 0xfffffa80022bab30:mspaint.exe                     2424    604      6    128 2019-12-11 14:35:14 UTC+0000
. 0xfffffa8001048060:DumpIt.exe                       796    604      2     45 2019-12-11 14:37:54 UTC+0000
 0xfffffa8001e68060:csrss.exe                        2760   2680      7    172 2019-12-11 14:37:05 UTC+0000
 0xfffffa8000ecbb30:winlogon.exe                     2808   2680      4    119 2019-12-11 14:37:05 UTC+0000



============================================================
  CODE INJECTION DETECTION (malfind)
  Dump: MemoryDump_Lab1.raw
  Time: 2026-05-07 18:21:08
============================================================

Process: svchost.exe Pid: 816 Address: 0xdf0000
Vad Tag: VadS Protection: PAGE_EXECUTE_READWRITE
Flags: CommitCharge: 16, MemCommit: 1, PrivateMemory: 1, Protection: 6

0x00df0000  41 ba 80 00 00 00 48 b8 38 a1 b7 fe fe 07 00 00   A.....H.8.......
0x00df0010  48 ff 20 90 41 ba 81 00 00 00 48 b8 38 a1 b7 fe   H...A.....H.8...
0x00df0020  fe 07 00 00 48 ff 20 90 41 ba 82 00 00 00 48 b8   ....H...A.....H.
0x00df0030  38 a1 b7 fe fe 07 00 00 48 ff 20 90 41 ba 83 00   8.......H...A...

0x00df0000 41               INC ECX
0x00df0001 ba80000000       MOV EDX, 0x80
0x00df0006 48               DEC EAX
0x00df0007 b838a1b7fe       MOV EAX, 0xfeb7a138
0x00df000c fe07             INC BYTE [EDI]
0x00df000e 0000             ADD [EAX], AL
0x00df0010 48               DEC EAX
0x00df0011 ff20             JMP DWORD [EAX]
0x00df0013 90               NOP
0x00df0014 41               INC ECX
0x00df0015 ba81000000       MOV EDX, 0x81
0x00df001a 48               DEC EAX
0x00df001b b838a1b7fe       MOV EAX, 0xfeb7a138
0x00df0020 fe07             INC BYTE [EDI]
0x00df0022 0000             ADD [EAX], AL
0x00df0024 48               DEC EAX
0x00df0025 ff20             JMP DWORD [EAX]
0x00df0027 90               NOP
0x00df0028 41               INC ECX
0x00df0029 ba82000000       MOV EDX, 0x82
0x00df002e 48               DEC EAX
0x00df002f b838a1b7fe       MOV EAX, 0xfeb7a138
0x00df0034 fe07             INC BYTE [EDI]
0x00df0036 0000             ADD [EAX], AL
0x00df0038 48               DEC EAX
0x00df0039 ff20             JMP DWORD [EAX]
0x00df003b 90               NOP
0x00df003c 41               INC ECX
0x00df003d ba               DB 0xba
0x00df003e 83               DB 0x83
0x00df003f 00               DB 0x0

Process: svchost.exe Pid: 472 Address: 0xb30000
Vad Tag: VadS Protection: PAGE_EXECUTE_READWRITE
Flags: CommitCharge: 16, MemCommit: 1, PrivateMemory: 1, Protection: 6

0x00b30000  41 ba 80 00 00 00 48 b8 38 a1 b7 fe fe 07 00 00   A.....H.8.......
0x00b30010  48 ff 20 90 41 ba 81 00 00 00 48 b8 38 a1 b7 fe   H...A.....H.8...
0x00b30020  fe 07 00 00 48 ff 20 90 41 ba 82 00 00 00 48 b8   ....H...A.....H.
0x00b30030  38 a1 b7 fe fe 07 00 00 48 ff 20 90 41 ba 83 00   8.......H...A...

0x00b30000 41               INC ECX
0x00b30001 ba80000000       MOV EDX, 0x80
0x00b30006 48               DEC EAX
0x00b30007 b838a1b7fe       MOV EAX, 0xfeb7a138
0x00b3000c fe07             INC BYTE [EDI]
0x00b3000e 0000             ADD [EAX], AL
0x00b30010 48               DEC EAX
0x00b30011 ff20             JMP DWORD [EAX]
0x00b30013 90               NOP
0x00b30014 41               INC ECX
0x00b30015 ba81000000       MOV EDX, 0x81
0x00b3001a 48               DEC EAX
0x00b3001b b838a1b7fe       MOV EAX, 0xfeb7a138
0x00b30020 fe07             INC BYTE [EDI]
0x00b30022 0000             ADD [EAX], AL
0x00b30024 48               DEC EAX
0x00b30025 ff20             JMP DWORD [EAX]
0x00b30027 90               NOP
0x00b30028 41               INC ECX
0x00b30029 ba82000000       MOV EDX, 0x82
0x00b3002e 48               DEC EAX
0x00b3002f b838a1b7fe       MOV EAX, 0xfeb7a138
0x00b30034 fe07             INC BYTE [EDI]
0x00b30036 0000             ADD [EAX], AL
0x00b30038 48               DEC EAX
0x00b30039 ff20             JMP DWORD [EAX]
0x00b3003b 90               NOP
0x00b3003c 41               INC ECX
0x00b3003d ba               DB 0xba
0x00b3003e 83               DB 0x83
0x00b3003f 00               DB 0x0

Process: svchost.exe Pid: 948 Address: 0x23f0000
Vad Tag: VadS Protection: PAGE_EXECUTE_READWRITE
Flags: CommitCharge: 128, MemCommit: 1, PrivateMemory: 1, Protection: 6

0x023f0000  20 00 00 00 e0 ff 07 00 0c 00 00 00 01 00 05 00   ................
0x023f0010  00 42 00 50 00 30 00 70 00 60 00 00 00 00 00 00   .B.P.0.p.`......
0x023f0020  48 8b 45 28 c7 00 00 00 00 00 c7 40 04 00 00 00   H.E(.......@....
0x023f0030  00 48 8b 45 28 48 8d 40 08 48 89 c2 48 8b 45 20   .H.E(H.@.H..H.E.

0x023f0000 2000             AND [EAX], AL
0x023f0002 0000             ADD [EAX], AL
0x023f0004 e0ff             LOOPNZ 0x23f0005
0x023f0006 07               POP ES
0x023f0007 000c00           ADD [EAX+EAX], CL
0x023f000a 0000             ADD [EAX], AL
0x023f000c 0100             ADD [EAX], EAX
0x023f000e 0500004200       ADD EAX, 0x420000
0x023f0013 50               PUSH EAX
0x023f0014 0030             ADD [EAX], DH
0x023f0016 007000           ADD [EAX+0x0], DH
0x023f0019 60               PUSHA
0x023f001a 0000             ADD [EAX], AL
0x023f001c 0000             ADD [EAX], AL
0x023f001e 0000             ADD [EAX], AL
0x023f0020 48               DEC EAX
0x023f0021 8b4528           MOV EAX, [EBP+0x28]
0x023f0024 c70000000000     MOV DWORD [EAX], 0x0
0x023f002a c7400400000000   MOV DWORD [EAX+0x4], 0x0
0x023f0031 48               DEC EAX
0x023f0032 8b4528           MOV EAX, [EBP+0x28]
0x023f0035 48               DEC EAX
0x023f0036 8d4008           LEA EAX, [EAX+0x8]
0x023f0039 48               DEC EAX
0x023f003a 89c2             MOV EDX, EAX
0x023f003c 48               DEC EAX
0x023f003d 8b4520           MOV EAX, [EBP+0x20]

Process: svchost.exe Pid: 948 Address: 0x4c90000
Vad Tag: VadS Protection: PAGE_EXECUTE_READWRITE
Flags: CommitCharge: 256, MemCommit: 1, PrivateMemory: 1, Protection: 6

0x04c90000  20 00 00 00 e0 ff 0f 00 0c 00 00 00 01 00 05 00   ................
0x04c90010  00 42 00 50 00 30 00 70 00 60 00 00 00 00 00 00   .B.P.0.p.`......
0x04c90020  ba fc ff ff ff 03 55 20 03 55 5c b9 04 00 1a 00   ......U..U\.....
0x04c90030  4c 8b c5 ff 95 e0 37 00 00 8b 4d 24 89 08 48 8d   L.....7...M$..H.

0x04c90000 2000             AND [EAX], AL
0x04c90002 0000             ADD [EAX], AL
0x04c90004 e0ff             LOOPNZ 0x4c90005
0x04c90006 0f000c00         STR WORD [EAX+EAX]
0x04c9000a 0000             ADD [EAX], AL
0x04c9000c 0100             ADD [EAX], EAX
0x04c9000e 0500004200       ADD EAX, 0x420000
0x04c90013 50               PUSH EAX
0x04c90014 0030             ADD [EAX], DH
0x04c90016 007000           ADD [EAX+0x0], DH
0x04c90019 60               PUSHA
0x04c9001a 0000             ADD [EAX], AL
0x04c9001c 0000             ADD [EAX], AL
0x04c9001e 0000             ADD [EAX], AL
0x04c90020 bafcffffff       MOV EDX, 0xfffffffc
0x04c90025 035520           ADD EDX, [EBP+0x20]
0x04c90028 03555c           ADD EDX, [EBP+0x5c]
0x04c9002b b904001a00       MOV ECX, 0x1a0004
0x04c90030 4c               DEC ESP
0x04c90031 8bc5             MOV EAX, EBP
0x04c90033 ff95e0370000     CALL DWORD [EBP+0x37e0]
0x04c90039 8b4d24           MOV ECX, [EBP+0x24]
0x04c9003c 8908             MOV [EAX], ECX
0x04c9003e 48               DEC EAX
0x04c9003f 8d               DB 0x8d

Process: wmpnetwk.exe Pid: 1856 Address: 0xb80000
Vad Tag: VadS Protection: PAGE_EXECUTE_READWRITE
Flags: CommitCharge: 16, MemCommit: 1, PrivateMemory: 1, Protection: 6

0x00b80000  41 ba 80 00 00 00 48 b8 38 a1 b7 fe fe 07 00 00   A.....H.8.......
0x00b80010  48 ff 20 90 41 ba 81 00 00 00 48 b8 38 a1 b7 fe   H...A.....H.8...
0x00b80020  fe 07 00 00 48 ff 20 90 41 ba 82 00 00 00 48 b8   ....H...A.....H.
0x00b80030  38 a1 b7 fe fe 07 00 00 48 ff 20 90 41 ba 83 00   8.......H...A...

0x00b80000 41               INC ECX
0x00b80001 ba80000000       MOV EDX, 0x80
0x00b80006 48               DEC EAX
0x00b80007 b838a1b7fe       MOV EAX, 0xfeb7a138
0x00b8000c fe07             INC BYTE [EDI]
0x00b8000e 0000             ADD [EAX], AL
0x00b80010 48               DEC EAX
0x00b80011 ff20             JMP DWORD [EAX]
0x00b80013 90               NOP
0x00b80014 41               INC ECX
0x00b80015 ba81000000       MOV EDX, 0x81
0x00b8001a 48               DEC EAX
0x00b8001b b838a1b7fe       MOV EAX, 0xfeb7a138
0x00b80020 fe07             INC BYTE [EDI]
0x00b80022 0000             ADD [EAX], AL
0x00b80024 48               DEC EAX
0x00b80025 ff20             JMP DWORD [EAX]
0x00b80027 90               NOP
0x00b80028 41               INC ECX
0x00b80029 ba82000000       MOV EDX, 0x82
0x00b8002e 48               DEC EAX
0x00b8002f b838a1b7fe       MOV EAX, 0xfeb7a138
0x00b80034 fe07             INC BYTE [EDI]
0x00b80036 0000             ADD [EAX], AL
0x00b80038 48               DEC EAX
0x00b80039 ff20             JMP DWORD [EAX]
0x00b8003b 90               NOP
0x00b8003c 41               INC ECX
0x00b8003d ba               DB 0xba
0x00b8003e 83               DB 0x83
0x00b8003f 00               DB 0x0

Process: explorer.exe Pid: 604 Address: 0x2810000
Vad Tag: VadS Protection: PAGE_EXECUTE_READWRITE
Flags: CommitCharge: 16, MemCommit: 1, PrivateMemory: 1, Protection: 6

0x02810000  41 ba 80 00 00 00 48 b8 38 a1 b7 fe fe 07 00 00   A.....H.8.......
0x02810010  48 ff 20 90 41 ba 81 00 00 00 48 b8 38 a1 b7 fe   H...A.....H.8...
0x02810020  fe 07 00 00 48 ff 20 90 41 ba 82 00 00 00 48 b8   ....H...A.....H.
0x02810030  38 a1 b7 fe fe 07 00 00 48 ff 20 90 41 ba 83 00   8.......H...A...

0x02810000 41               INC ECX
0x02810001 ba80000000       MOV EDX, 0x80
0x02810006 48               DEC EAX
0x02810007 b838a1b7fe       MOV EAX, 0xfeb7a138
0x0281000c fe07             INC BYTE [EDI]
0x0281000e 0000             ADD [EAX], AL
0x02810010 48               DEC EAX
0x02810011 ff20             JMP DWORD [EAX]
0x02810013 90               NOP
0x02810014 41               INC ECX
0x02810015 ba81000000       MOV EDX, 0x81
0x0281001a 48               DEC EAX
0x0281001b b838a1b7fe       MOV EAX, 0xfeb7a138
0x02810020 fe07             INC BYTE [EDI]
0x02810022 0000             ADD [EAX], AL
0x02810024 48               DEC EAX
0x02810025 ff20             JMP DWORD [EAX]
0x02810027 90               NOP
0x02810028 41               INC ECX
0x02810029 ba82000000       MOV EDX, 0x82
0x0281002e 48               DEC EAX
0x0281002f b838a1b7fe       MOV EAX, 0xfeb7a138
0x02810034 fe07             INC BYTE [EDI]
0x02810036 0000             ADD [EAX], AL
0x02810038 48               DEC EAX
0x02810039 ff20             JMP DWORD [EAX]
0x0281003b 90               NOP
0x0281003c 41               INC ECX
0x0281003d ba               DB 0xba
0x0281003e 83               DB 0x83
0x0281003f 00               DB 0x0

Process: explorer.exe Pid: 604 Address: 0x3db0000
Vad Tag: VadS Protection: PAGE_EXECUTE_READWRITE
Flags: CommitCharge: 1, MemCommit: 1, PrivateMemory: 1, Protection: 6

0x03db0000  00 00 00 00 00 00 00 00 00 00 00 00 00 00 00 00   ................
0x03db0010  00 00 00 00 00 00 00 00 00 00 00 00 00 00 00 00   ................
0x03db0020  00 00 db 03 00 00 00 00 00 00 00 00 00 00 00 00   ................
0x03db0030  00 00 00 00 00 00 00 00 00 00 00 00 00 00 00 00   ................

0x03db0000 0000             ADD [EAX], AL
0x03db0002 0000             ADD [EAX], AL
0x03db0004 0000             ADD [EAX], AL
0x03db0006 0000             ADD [EAX], AL
0x03db0008 0000             ADD [EAX], AL
0x03db000a 0000             ADD [EAX], AL
0x03db000c 0000             ADD [EAX], AL
0x03db000e 0000             ADD [EAX], AL
0x03db0010 0000             ADD [EAX], AL
0x03db0012 0000             ADD [EAX], AL
0x03db0014 0000             ADD [EAX], AL
0x03db0016 0000             ADD [EAX], AL
0x03db0018 0000             ADD [EAX], AL
0x03db001a 0000             ADD [EAX], AL
0x03db001c 0000             ADD [EAX], AL
0x03db001e 0000             ADD [EAX], AL
0x03db0020 0000             ADD [EAX], AL
0x03db0022 db03             FILD DWORD [EBX]
0x03db0024 0000             ADD [EAX], AL
0x03db0026 0000             ADD [EAX], AL
0x03db0028 0000             ADD [EAX], AL
0x03db002a 0000             ADD [EAX], AL
0x03db002c 0000             ADD [EAX], AL
0x03db002e 0000             ADD [EAX], AL
0x03db0030 0000             ADD [EAX], AL
0x03db0032 0000             ADD [EAX], AL
0x03db0034 0000             ADD [EAX], AL
0x03db0036 0000             ADD [EAX], AL
0x03db0038 0000             ADD [EAX], AL
0x03db003a 0000             ADD [EAX], AL
0x03db003c 0000             ADD [EAX], AL
0x03db003e 0000             ADD [EAX], AL

Process: mspaint.exe Pid: 2424 Address: 0x2150000
Vad Tag: VadS Protection: PAGE_EXECUTE_READWRITE
Flags: CommitCharge: 1, MemCommit: 1, PrivateMemory: 1, Protection: 6

0x02150000  00 00 00 00 00 00 00 00 00 00 00 00 00 00 00 00   ................
0x02150010  00 00 00 00 00 00 00 00 00 00 00 00 00 00 00 00   ................
0x02150020  00 00 00 00 00 00 00 00 00 00 00 00 00 00 00 00   ................
0x02150030  00 00 00 00 00 00 00 00 00 00 00 00 00 00 00 00   ................

0x02150000 0000             ADD [EAX], AL
0x02150002 0000             ADD [EAX], AL
0x02150004 0000             ADD [EAX], AL
0x02150006 0000             ADD [EAX], AL
0x02150008 0000             ADD [EAX], AL
0x0215000a 0000             ADD [EAX], AL
0x0215000c 0000             ADD [EAX], AL
0x0215000e 0000             ADD [EAX], AL
0x02150010 0000             ADD [EAX], AL
0x02150012 0000             ADD [EAX], AL
0x02150014 0000             ADD [EAX], AL
0x02150016 0000             ADD [EAX], AL
0x02150018 0000             ADD [EAX], AL
0x0215001a 0000             ADD [EAX], AL
0x0215001c 0000             ADD [EAX], AL
0x0215001e 0000             ADD [EAX], AL
0x02150020 0000             ADD [EAX], AL
0x02150022 0000             ADD [EAX], AL
0x02150024 0000             ADD [EAX], AL
0x02150026 0000             ADD [EAX], AL
0x02150028 0000             ADD [EAX], AL
0x0215002a 0000             ADD [EAX], AL
0x0215002c 0000             ADD [EAX], AL
0x0215002e 0000             ADD [EAX], AL
0x02150030 0000             ADD [EAX], AL
0x02150032 0000             ADD [EAX], AL
0x02150034 0000             ADD [EAX], AL
0x02150036 0000             ADD [EAX], AL
0x02150038 0000             ADD [EAX], AL
0x0215003a 0000             ADD [EAX], AL
0x0215003c 0000             ADD [EAX], AL
0x0215003e 0000             ADD [EAX], AL

Process: explorer.exe Pid: 2504 Address: 0x3ec0000
Vad Tag: VadS Protection: PAGE_EXECUTE_READWRITE
Flags: CommitCharge: 16, MemCommit: 1, PrivateMemory: 1, Protection: 6

0x03ec0000  41 ba 80 00 00 00 48 b8 38 a1 b7 fe fe 07 00 00   A.....H.8.......
0x03ec0010  48 ff 20 90 41 ba 81 00 00 00 48 b8 38 a1 b7 fe   H...A.....H.8...
0x03ec0020  fe 07 00 00 48 ff 20 90 41 ba 82 00 00 00 48 b8   ....H...A.....H.
0x03ec0030  38 a1 b7 fe fe 07 00 00 48 ff 20 90 41 ba 83 00   8.......H...A...

0x03ec0000 41               INC ECX
0x03ec0001 ba80000000       MOV EDX, 0x80
0x03ec0006 48               DEC EAX
0x03ec0007 b838a1b7fe       MOV EAX, 0xfeb7a138
0x03ec000c fe07             INC BYTE [EDI]
0x03ec000e 0000             ADD [EAX], AL
0x03ec0010 48               DEC EAX
0x03ec0011 ff20             JMP DWORD [EAX]
0x03ec0013 90               NOP
0x03ec0014 41               INC ECX
0x03ec0015 ba81000000       MOV EDX, 0x81
0x03ec001a 48               DEC EAX
0x03ec001b b838a1b7fe       MOV EAX, 0xfeb7a138
0x03ec0020 fe07             INC BYTE [EDI]
0x03ec0022 0000             ADD [EAX], AL
0x03ec0024 48               DEC EAX
0x03ec0025 ff20             JMP DWORD [EAX]
0x03ec0027 90               NOP
0x03ec0028 41               INC ECX
0x03ec0029 ba82000000       MOV EDX, 0x82
0x03ec002e 48               DEC EAX
0x03ec002f b838a1b7fe       MOV EAX, 0xfeb7a138
0x03ec0034 fe07             INC BYTE [EDI]
0x03ec0036 0000             ADD [EAX], AL
0x03ec0038 48               DEC EAX
0x03ec0039 ff20             JMP DWORD [EAX]
0x03ec003b 90               NOP
0x03ec003c 41               INC ECX
0x03ec003d ba               DB 0xba
0x03ec003e 83               DB 0x83
0x03ec003f 00               DB 0x0

Process: explorer.exe Pid: 2504 Address: 0x3eb0000
Vad Tag: VadS Protection: PAGE_EXECUTE_READWRITE
Flags: CommitCharge: 1, MemCommit: 1, PrivateMemory: 1, Protection: 6

0x03eb0000  00 00 00 00 00 00 00 00 00 00 00 00 00 00 00 00   ................
0x03eb0010  00 00 00 00 00 00 00 00 00 00 00 00 00 00 00 00   ................
0x03eb0020  00 00 eb 03 00 00 00 00 00 00 00 00 00 00 00 00   ................
0x03eb0030  00 00 00 00 00 00 00 00 00 00 00 00 00 00 00 00   ................

0x03eb0000 0000             ADD [EAX], AL
0x03eb0002 0000             ADD [EAX], AL
0x03eb0004 0000             ADD [EAX], AL
0x03eb0006 0000             ADD [EAX], AL
0x03eb0008 0000             ADD [EAX], AL
0x03eb000a 0000             ADD [EAX], AL
0x03eb000c 0000             ADD [EAX], AL
0x03eb000e 0000             ADD [EAX], AL
0x03eb0010 0000             ADD [EAX], AL
0x03eb0012 0000             ADD [EAX], AL
0x03eb0014 0000             ADD [EAX], AL
0x03eb0016 0000             ADD [EAX], AL
0x03eb0018 0000             ADD [EAX], AL
0x03eb001a 0000             ADD [EAX], AL
0x03eb001c 0000             ADD [EAX], AL
0x03eb001e 0000             ADD [EAX], AL
0x03eb0020 0000             ADD [EAX], AL
0x03eb0022 eb03             JMP 0x3eb0027
0x03eb0024 0000             ADD [EAX], AL
0x03eb0026 0000             ADD [EAX], AL
0x03eb0028 0000             ADD [EAX], AL
0x03eb002a 0000             ADD [EAX], AL
0x03eb002c 0000             ADD [EAX], AL
0x03eb002e 0000             ADD [EAX], AL
0x03eb0030 0000             ADD [EAX], AL
0x03eb0032 0000             ADD [EAX], AL
0x03eb0034 0000             ADD [EAX], AL
0x03eb0036 0000             ADD [EAX], AL
0x03eb0038 0000             ADD [EAX], AL
0x03eb003a 0000             ADD [EAX], AL
0x03eb003c 0000             ADD [EAX], AL
0x03eb003e 0000             ADD [EAX], AL

Process: SearchFilterHo Pid: 1720 Address: 0x9b0000
Vad Tag: VadS Protection: PAGE_EXECUTE_READWRITE
Flags: CommitCharge: 2, PrivateMemory: 1, Protection: 6

0x009b0000  00 00 00 00 00 00 00 00 7a f3 fb b7 a9 80 00 01   ........z.......
0x009b0010  ee ff ee ff 00 00 00 00 28 01 9b 00 00 00 00 00   ........(.......
0x009b0020  28 01 9b 00 00 00 00 00 00 00 9b 00 00 00 00 00   (...............
0x009b0030  00 00 9b 00 00 00 00 00 80 00 00 00 00 00 00 00   ................

0x009b0000 0000             ADD [EAX], AL
0x009b0002 0000             ADD [EAX], AL
0x009b0004 0000             ADD [EAX], AL
0x009b0006 0000             ADD [EAX], AL
0x009b0008 7af3             JP 0x9afffd
0x009b000a fb               STI
0x009b000b b7a9             MOV BH, 0xa9
0x009b000d 800001           ADD BYTE [EAX], 0x1
0x009b0010 ee               OUT DX, AL
0x009b0011 ff               DB 0xff
0x009b0012 ee               OUT DX, AL
0x009b0013 ff00             INC DWORD [EAX]
0x009b0015 0000             ADD [EAX], AL
0x009b0017 0028             ADD [EAX], CH
0x009b0019 019b00000000     ADD [EBX+0x0], EBX
0x009b001f 0028             ADD [EAX], CH
0x009b0021 019b00000000     ADD [EBX+0x0], EBX
0x009b0027 0000             ADD [EAX], AL
0x009b0029 009b00000000     ADD [EBX+0x0], BL
0x009b002f 0000             ADD [EAX], AL
0x009b0031 009b00000000     ADD [EBX+0x0], BL
0x009b0037 008000000000     ADD [EAX+0x0], AL
0x009b003d 0000             ADD [EAX], AL
0x009b003f 00               DB 0x0




============================================================
  DLL LIST (dlllist)
  Dump: MemoryDump_Lab1.raw
  Time: 2026-05-07 18:21:22
============================================================

************************************************************************
System pid:      4
Unable to read PEB for task.
************************************************************************
smss.exe pid:    248
Command line : \SystemRoot\System32\smss.exe


Base                             Size          LoadCount Path
------------------ ------------------ ------------------ ----
0x0000000047ef0000            0x20000             0xffff \SystemRoot\System32\smss.exe
0x0000000077c90000           0x1a9000             0xffff C:\Windows\SYSTEM32\ntdll.dll
************************************************************************
csrss.exe pid:    320
Command line : %SystemRoot%\system32\csrss.exe ObjectDirectory=\Windows SharedSection=1024,20480,768 Windows=On SubSystemType=Windows ServerDll=basesrv,1 ServerDll=winsrv:UserServerDllInitialization,3 ServerDll=winsrv:ConServerDllInitialization,2 ServerDll=sxssrv,4 ProfileControl=Off MaxRequestThreads=16
Service Pack 1

Base                             Size          LoadCount Path
------------------ ------------------ ------------------ ----
0x000000004a620000             0x6000             0xffff C:\Windows\system32\csrss.exe
0x0000000077c90000           0x1a9000             0xffff C:\Windows\SYSTEM32\ntdll.dll
0x000007fefdc60000            0x13000             0xffff C:\Windows\system32\CSRSRV.dll
0x000007fefdc40000            0x11000                0x4 C:\Windows\system32\basesrv.DLL
0x000007fefdc00000            0x38000                0x2 C:\Windows\system32\winsrv.DLL
0x0000000077b90000            0xfa000                0xb C:\Windows\system32\USER32.dll
0x000007fefe740000            0x67000                0xc C:\Windows\system32\GDI32.dll
0x0000000077a70000           0x11f000               0x9f C:\Windows\SYSTEM32\kernel32.dll
0x000007fefdcb0000            0x6b000              0x1ca C:\Windows\system32\KERNELBASE.dll
0x000007fefe710000             0xe000                0x3 C:\Windows\system32\LPK.dll
0x000007fefe850000            0xc9000                0x3 C:\Windows\system32\USP10.dll
0x000007fefe7b0000            0x9f000                0x7 C:\Windows\system32\msvcrt.dll
0x000007fefdbf0000             0xc000                0x1 C:\Windows\system32\sxssrv.DLL
0x000007fefd820000            0x91000                0x1 C:\Windows\system32\sxs.dll
0x000007fefdfb0000           0x12d000                0x7 C:\Windows\system32\RPCRT4.dll
0x000007fefd810000             0xf000                0x1 C:\Windows\system32\CRYPTBASE.dll
0x000007fefe390000            0xdb000                0x1 C:\Windows\system32\ADVAPI32.dll
0x000007fefe720000            0x1f000                0x6 C:\Windows\SYSTEM32\sechost.dll
************************************************************************
csrss.exe pid:    368
Command line : %SystemRoot%\system32\csrss.exe ObjectDirectory=\Windows SharedSection=1024,20480,768 Windows=On SubSystemType=Windows ServerDll=basesrv,1 ServerDll=winsrv:UserServerDllInitialization,3 ServerDll=winsrv:ConServerDllInitialization,2 ServerDll=sxssrv,4 ProfileControl=Off MaxRequestThreads=16
Service Pack 1

Base                             Size          LoadCount Path
------------------ ------------------ ------------------ ----
0x000000004a620000             0x6000             0xffff C:\Windows\system32\csrss.exe
0x0000000077c90000           0x1a9000             0xffff C:\Windows\SYSTEM32\ntdll.dll
0x000007fefdc60000            0x13000             0xffff C:\Windows\system32\CSRSRV.dll
0x000007fefdc40000            0x11000                0x4 C:\Windows\system32\basesrv.DLL
0x000007fefdc00000            0x38000                0x2 C:\Windows\system32\winsrv.DLL
0x0000000077b90000            0xfa000                0xb C:\Windows\system32\USER32.dll
0x000007fefe740000            0x67000                0xc C:\Windows\system32\GDI32.dll
0x0000000077a70000           0x11f000               0x45 C:\Windows\SYSTEM32\kernel32.dll
0x000007fefdcb0000            0x6b000               0xdb C:\Windows\system32\KERNELBASE.dll
0x000007fefe710000             0xe000                0x3 C:\Windows\system32\LPK.dll
0x000007fefe850000            0xc9000                0x3 C:\Windows\system32\USP10.dll
0x000007fefe7b0000            0x9f000                0x3 C:\Windows\system32\msvcrt.dll
0x000007fefdbf0000             0xc000                0x1 C:\Windows\system32\sxssrv.DLL
0x000007fefd820000            0x91000                0x1 C:\Windows\system32\sxs.dll
0x000007fefdfb0000           0x12d000                0x1 C:\Windows\system32\RPCRT4.dll
0x000007fefd810000             0xf000                0x1 C:\Windows\system32\CRYPTBASE.dll
************************************************************************
psxss.exe pid:    376
Command line : %SystemRoot%\system32\psxss.exe
Service Pack 1

Base                             Size          LoadCount Path
------------------ ------------------ ------------------ ----
0x0000000049910000            0xda000             0xffff C:\Windows\system32\psxss.exe
0x0000000077c90000           0x1a9000             0xffff C:\Windows\SYSTEM32\ntdll.dll
0x0000000077a70000           0x11f000             0xffff C:\Windows\system32\kernel32.dll
0x000007fefdcb0000            0x6b000             0xffff C:\Windows\system32\KERNELBASE.dll
0x000007fefe390000            0xdb000             0xffff C:\Windows\system32\ADVAPI32.dll
0x000007fefe7b0000            0x9f000             0xffff C:\Windows\system32\msvcrt.dll
0x000007fefe720000            0x1f000             0xffff C:\Windows\SYSTEM32\sechost.dll
0x000007fefdfb0000           0x12d000             0xffff C:\Windows\system32\RPCRT4.dll
0x0000000077b90000            0xfa000             0xffff C:\Windows\system32\USER32.dll
0x000007fefe740000            0x67000             0xffff C:\Windows\system32\GDI32.dll
0x000007fefe710000             0xe000             0xffff C:\Windows\system32\LPK.dll
0x000007fefe850000            0xc9000             0xffff C:\Windows\system32\USP10.dll
0x000007fefdbd0000            0x18000             0xffff C:\Windows\system32\MPR.dll
0x000007fefdbb0000            0x16000             0xffff C:\Windows\system32\NETAPI32.dll
0x000007fefdba0000             0xc000             0xffff C:\Windows\system32\netutils.dll
0x000007fefdb70000            0x23000             0xffff C:\Windows\system32\srvcli.dll
0x000007fefdb50000            0x15000             0xffff C:\Windows\system32\wkscli.dll
0x000007fefdb30000            0x14000             0xffff C:\Windows\system32\SAMCLI.DLL
0x000007fefdb00000            0x30000             0xffff C:\Windows\system32\LOGONCLI.DLL
0x000007fefdae0000            0x1d000             0xffff C:\Windows\system32\SAMLIB.dll
0x000007fefdac0000            0x1e000             0xffff C:\Windows\system32\USERENV.dll
0x000007fefdab0000             0xf000             0xffff C:\Windows\system32\profapi.dll
0x000007fefd980000           0x125000             0xffff C:\Windows\system32\dbghelp.dll
0x000007fefd970000             0x9000             0xffff C:\Windows\system32\WSOCK32.dll
0x000007feffda0000            0x4d000             0xffff C:\Windows\system32\WS2_32.dll
0x000007fefebb0000             0x8000             0xffff C:\Windows\system32\NSI.dll
0x000007fefd940000            0x27000             0xffff C:\Windows\system32\IPHLPAPI.DLL
0x000007fefd930000             0xb000             0xffff C:\Windows\system32\WINNSI.DLL
0x000007fefd920000             0xb000             0xffff C:\Windows\system32\slc.dll
0x000007fefe110000            0x52000             0xffff C:\Windows\system32\WLDAP32.dll
0x000007fefe0e0000            0x2e000                0x2 C:\Windows\system32\IMM32.DLL
0x000007fefebc0000           0x109000                0x1 C:\Windows\system32\MSCTF.dll
0x000007fefd1e0000            0x17000                0x1 C:\Windows\system32\CRYPTSP.dll
0x000007fefcf10000            0x47000                0x1 C:\Windows\system32\rsaenh.dll
0x000007fefd810000             0xf000                0x1 C:\Windows\system32\CRYPTBASE.dll
0x000007fefd2f0000            0x32000                0x1 C:\Windows\system32\netjoin.dll
************************************************************************
winlogon.exe pid:    416
Command line : winlogon.exe
Service Pack 1

Base                             Size          LoadCount Path
------------------ ------------------ ------------------ ----
0x00000000ff9c0000            0x62000             0xffff C:\Windows\system32\winlogon.exe
0x0000000077c90000           0x1a9000             0xffff C:\Windows\SYSTEM32\ntdll.dll
0x0000000077a70000           0x11f000             0xffff C:\Windows\system32\kernel32.dll
0x000007fefdcb0000            0x6b000             0xffff C:\Windows\system32\KERNELBASE.dll
0x0000000077b90000            0xfa000             0xffff C:\Windows\system32\USER32.dll
0x000007fefe740000            0x67000             0xffff C:\Windows\system32\GDI32.dll
0x000007fefe710000             0xe000             0xffff C:\Windows\system32\LPK.dll
0x000007fefe850000            0xc9000             0xffff C:\Windows\system32\USP10.dll
0x000007fefe7b0000            0x9f000             0xffff C:\Windows\system32\msvcrt.dll
0x000007fefd8e0000            0x3d000             0xffff C:\Windows\system32\WINSTA.dll
0x000007fefdfb0000           0x12d000             0xffff C:\Windows\system32\RPCRT4.dll
0x000007fefe0e0000            0x2e000                0x2 C:\Windows\system32\IMM32.DLL
0x000007fefebc0000           0x109000                0x1 C:\Windows\system32\MSCTF.dll
0x000007fefe390000            0xdb000                0x6 C:\Windows\system32\ADVAPI32.dll
0x000007fefe720000            0x1f000               0x22 C:\Windows\SYSTEM32\sechost.dll
0x000007fefdab0000             0xf000                0x1 C:\Windows\system32\profapi.dll
0x000007fefd8c0000            0x14000                0x1 C:\Windows\system32\RpcRtRemote.dll
0x000007fefd7b0000            0x57000             0xffff C:\Windows\system32\apphelp.dll
0x000007fefa920000             0xa000                0x1 C:\Windows\system32\UXINIT.dll
0x000007fefbe40000            0x56000                0x3 C:\Windows\system32\UxTheme.dll
0x000007fefd1e0000            0x17000                0x1 C:\Windows\system32\CRYPTSP.dll
0x000007fefcf10000            0x47000                0x1 C:\Windows\system32\rsaenh.dll
0x000007fefd810000             0xf000                0x1 C:\Windows\system32\CRYPTBASE.dll
0x000007fefafe0000           0x12a000                0x1 C:\Windows\system32\WindowsCodecs.dll
0x000007fefe9a0000           0x203000                0x1 C:\Windows\system32\ole32.dll
0x000007fefdb50000            0x15000                0x1 C:\Windows\system32\wkscli.dll
0x000007fefd2f0000            0x32000                0x1 C:\Windows\system32\netjoin.dll
0x000007fefdba0000             0xc000                0x2 C:\Windows\system32\netutils.dll
0x000007fefd780000            0x25000                0x1 C:\Windows\system32\SspiCli.dll
0x000007fefd920000             0xb000                0x1 C:\Windows\system32\slc.dll
0x000007fefdbd0000            0x18000                0x1 C:\Windows\system32\MPR.dll
************************************************************************
wininit.exe pid:    424
Command line : wininit.exe
Service Pack 1

Base                             Size          LoadCount Path
------------------ ------------------ ------------------ ----
0x00000000ff850000            0x23000             0xffff C:\Windows\system32\wininit.exe
0x0000000077c90000           0x1a9000             0xffff C:\Windows\SYSTEM32\ntdll.dll
0x0000000077a70000           0x11f000             0xffff C:\Windows\system32\kernel32.dll
0x000007fefdcb0000            0x6b000             0xffff C:\Windows\system32\KERNELBASE.dll
0x0000000077b90000            0xfa000             0xffff C:\Windows\system32\USER32.dll
0x000007fefe740000            0x67000             0xffff C:\Windows\system32\GDI32.dll
0x000007fefe710000             0xe000             0xffff C:\Windows\system32\LPK.dll
0x000007fefe850000            0xc9000             0xffff C:\Windows\system32\USP10.dll
0x000007fefe7b0000            0x9f000             0xffff C:\Windows\system32\msvcrt.dll
0x000007fefdfb0000           0x12d000             0xffff C:\Windows\system32\RPCRT4.dll
0x000007fefe720000            0x1f000             0xffff C:\Windows\SYSTEM32\sechost.dll
0x000007fefdab0000             0xf000             0xffff C:\Windows\system32\profapi.dll
0x000007fefe0e0000            0x2e000                0x2 C:\Windows\system32\IMM32.DLL
0x000007fefebc0000           0x109000                0x1 C:\Windows\system32\MSCTF.dll
0x000007fefd8c0000            0x14000                0x1 C:\Windows\system32\RpcRtRemote.dll
0x000007fefd7b0000            0x57000             0xffff C:\Windows\system32\apphelp.dll
0x000007fefd810000             0xf000                0x1 C:\Windows\system32\CRYPTBASE.dll
0x000007feffda0000            0x4d000                0x6 C:\Windows\system32\WS2_32.dll
0x000007fefebb0000             0x8000                0x6 C:\Windows\system32\NSI.dll
0x000007fefd180000            0x55000                0x3 C:\Windows\system32\mswsock.dll
0x000007fefc960000             0x7000                0x1 C:\Windows\System32\wshtcpip.dll
0x000007fefd170000             0x7000                0x1 C:\Windows\System32\wship6.dll
0x000007fefd4d0000             0xb000                0x1 C:\Windows\system32\secur32.dll
0x000007fefd780000            0x25000                0x2 C:\Windows\system32\SSPICLI.DLL
0x000007fefce10000             0xa000                0x1 C:\Windows\system32\credssp.dll
0x000007fefe390000            0xdb000                0x1 C:\Windows\system32\ADVAPI32.dll
************************************************************************
services.exe pid:    484
Command line : C:\Windows\system32\services.exe
Service Pack 1

Base                             Size          LoadCount Path
------------------ ------------------ ------------------ ----
0x00000000ff770000            0x53000             0xffff C:\Windows\system32\services.exe
0x0000000077c90000           0x1a9000             0xffff C:\Windows\SYSTEM32\ntdll.dll
0x0000000077a70000           0x11f000             0xffff C:\Windows\system32\kernel32.dll
0x000007fefdcb0000            0x6b000             0xffff C:\Windows\system32\KERNELBASE.dll
0x000007fefe7b0000            0x9f000             0xffff C:\Windows\system32\msvcrt.dll
0x000007fefdfb0000           0x12d000             0xffff C:\Windows\system32\RPCRT4.dll
0x000007fefd780000            0x25000             0xffff C:\Windows\system32\SspiCli.dll
0x000007fefdab0000             0xf000             0xffff C:\Windows\system32\profapi.dll
0x000007fefe720000            0x1f000             0xffff C:\Windows\SYSTEM32\sechost.dll
0x000007fefd810000             0xf000             0xffff C:\Windows\system32\CRYPTBASE.dll
0x000007fefd500000            0x19000                0x1 C:\Windows\system32\scext.dll
0x0000000077b90000            0xfa000               0x18 C:\Windows\system32\USER32.dll
0x000007fefe740000            0x67000               0x15 C:\Windows\system32\GDI32.dll
0x000007fefe710000             0xe000                0x6 C:\Windows\system32\LPK.dll
0x000007fefe850000            0xc9000                0x6 C:\Windows\system32\USP10.dll
0x000007fefd4d0000             0xb000                0x2 C:\Windows\system32\Secur32.dll
0x000007fefd460000            0x67000                0x1 C:\Windows\system32\SCESRV.dll
0x000007fefdb70000            0x23000                0x1 C:\Windows\system32\srvcli.dll
0x000007fefe0e0000            0x2e000                0x2 C:\Windows\system32\IMM32.DLL
0x000007fefebc0000           0x109000                0x1 C:\Windows\system32\MSCTF.dll
0x000007fefd8c0000            0x14000                0x1 C:\Windows\system32\RpcRtRemote.dll
0x000007fefce10000             0xa000                0x1 C:\Windows\system32\credssp.dll
0x000007fefd3b0000            0x2f000                0x1 C:\Windows\system32\AUTHZ.dll
0x000007fefcd90000            0x39000                0x1 C:\Windows\system32\UBPM.dll
0x000007fefe390000            0xdb000                0x2 C:\Windows\system32\ADVAPI32.dll
0x000007fefd7b0000            0x57000             0xffff C:\Windows\system32\apphelp.dll
0x000007fefc810000            0x11000                0x1 C:\Windows\system32\WTSAPI32.dll
0x000007fefd8e0000            0x3d000                0x1 C:\Windows\system32\WINSTA.dll
0x000007feffda0000            0x4d000                0x6 C:\Windows\system32\WS2_32.dll
0x000007fefebb0000             0x8000                0x6 C:\Windows\system32\NSI.dll
0x000007fefd180000            0x55000                0x3 C:\Windows\system32\mswsock.dll
0x000007fefc960000             0x7000                0x1 C:\Windows\System32\wshtcpip.dll
0x000007fefd170000             0x7000                0x1 C:\Windows\System32\wship6.dll
************************************************************************
lsass.exe pid:    492
Command line : C:\Windows\system32\lsass.exe
Service Pack 1

Base                             Size          LoadCount Path
------------------ ------------------ ------------------ ----
0x00000000ffe90000             0xc000             0xffff C:\Windows\system32\lsass.exe
0x0000000077c90000           0x1a9000             0xffff C:\Windows\SYSTEM32\ntdll.dll
0x0000000077a70000           0x11f000             0xffff C:\Windows\system32\kernel32.dll
0x000007fefdcb0000            0x6b000             0xffff C:\Windows\system32\KERNELBASE.dll
0x000007fefe7b0000            0x9f000             0xffff C:\Windows\system32\msvcrt.dll
0x000007fefdfb0000           0x12d000             0xffff C:\Windows\system32\RPCRT4.dll
0x000007fefd770000             0xb000             0xffff C:\Windows\system32\SspiSrv.dll
0x000007fefd5f0000           0x167000               0x15 C:\Windows\system32\lsasrv.dll
0x000007fefe720000            0x1f000               0xaf C:\Windows\SYSTEM32\sechost.dll
0x000007fefd780000            0x25000               0x15 C:\Windows\system32\SspiCli.dll
0x000007fefe390000            0xdb000               0x19 C:\Windows\system32\ADVAPI32.dll
0x0000000077b90000            0xfa000               0x44 C:\Windows\system32\USER32.dll
0x000007fefe740000            0x67000               0x36 C:\Windows\system32\GDI32.dll
0x000007fefe710000             0xe000               0x11 C:\Windows\system32\LPK.dll
0x000007fefe850000            0xc9000               0x11 C:\Windows\system32\USP10.dll
0x000007fefd520000            0xbd000                0xe C:\Windows\system32\SAMSRV.dll
0x000007fefd4e0000            0x14000               0x16 C:\Windows\system32\cryptdll.dll
0x000007fefdc80000             0xf000               0x20 C:\Windows\system32\MSASN1.dll
0x000007fefd3f0000            0x6d000                0xc C:\Windows\system32\wevtapi.dll
0x000007fefe0e0000            0x2e000                0x2 C:\Windows\system32\IMM32.DLL
0x000007fefebc0000           0x109000                0x1 C:\Windows\system32\MSCTF.dll
0x000007fefd3e0000             0x9000                0x1 C:\Windows\system32\cngaudit.dll
0x000007fefd3b0000            0x2f000                0x1 C:\Windows\system32\AUTHZ.dll
0x000007fefd360000            0x4e000                0x4 C:\Windows\system32\ncrypt.dll
0x000007fefd330000            0x22000               0x21 C:\Windows\system32\bcrypt.dll
0x00000000759b0000             0x2000                0x1 C:\Windows\system32\msprivs.DLL
0x000007fefd2f0000            0x32000                0x1 C:\Windows\system32\netjoin.dll
0x000007fefd2c0000            0x24000                0x1 C:\Windows\system32\negoexts.DLL
0x000007fefd4d0000             0xb000                0x4 C:\Windows\system32\Secur32.dll
0x000007fefd810000             0xf000                0x6 C:\Windows\system32\cryptbase.dll
0x000007fefd200000            0xb4000                0x2 C:\Windows\system32\kerberos.DLL
0x000007fefd1e0000            0x17000                0x6 C:\Windows\system32\CRYPTSP.dll
0x000007feffda0000            0x4d000                0xb C:\Windows\system32\WS2_32.dll
0x000007fefebb0000             0x8000               0x10 C:\Windows\system32\NSI.dll
0x000007fefd180000            0x55000                0x3 C:\Windows\system32\mswsock.dll
0x000007fefd170000             0x7000                0x1 C:\Windows\System32\wship6.dll
0x000007fefd110000            0x51000                0x5 C:\Windows\system32\msv1_0.DLL
0x000007fefd060000            0xae000                0x2 C:\Windows\system32\netlogon.DLL
0x000007fefd000000            0x5b000                0x3 C:\Windows\system32\DNSAPI.dll
0x000007fefdb00000            0x30000                0x2 C:\Windows\system32\logoncli.dll
0x000007fefcfa0000            0x57000                0x1 C:\Windows\system32\schannel.DLL
0x000007fefdd20000           0x167000                0xd C:\Windows\system32\CRYPT32.dll
0x000007fefcf60000            0x36000                0x1 C:\Windows\system32\wdigest.DLL
0x000007fefcf10000            0x47000                0x1 C:\Windows\system32\rsaenh.dll
0x000007fefcef0000            0x18000                0x1 C:\Windows\system32\tspkg.DLL
0x000007fefcea0000            0x45000                0x1 C:\Windows\system32\pku2u.DLL
0x000007fefce50000            0x4c000                0x1 C:\Windows\system32\bcryptprimitives.dll
0x000007fefd8c0000            0x14000                0x1 C:\Windows\system32\RpcRtRemote.dll
0x000007fefce30000            0x12000                0x1 C:\Windows\system32\efslsaext.dll
0x000007fefcdd0000            0x3e000                0x1 C:\Windows\system32\scecli.DLL
0x000007fefce10000             0xa000                0x1 C:\Windows\system32\credssp.dll
0x000007fefd8e0000            0x3d000                0x1 C:\Windows\system32\WINSTA.dll
0x000007fefc960000             0x7000                0x1 C:\Windows\System32\wshtcpip.dll
0x000007fef5c60000            0x32000                0x1 C:\Windows\system32\dssenh.dll
0x000007fefdac0000            0x1e000                0x4 C:\Windows\system32\USERENV.dll
0x000007fefdab0000             0xf000                0x4 C:\Windows\system32\profapi.dll
0x000007fefccc0000            0x1b000                0x7 C:\Windows\system32\GPAPI.dll
0x000007fefd940000            0x27000                0x1 C:\Windows\system32\IPHLPAPI.DLL
0x000007fefd930000             0xb000                0x1 C:\Windows\system32\WINNSI.DLL
0x000007fefdba0000             0xc000                0x1 C:\Windows\system32\netutils.dll
0x000007fef2e50000            0x26000                0xb C:\Windows\system32\cryptnet.dll
0x000007fefe110000            0x52000                0xb C:\Windows\system32\WLDAP32.dll
0x000007fef3710000             0xb000                0x1 C:\Windows\system32\keyiso.dll
************************************************************************
lsm.exe pid:    500
Command line : C:\Windows\system32\lsm.exe
Service Pack 1

Base                             Size          LoadCount Path
------------------ ------------------ ------------------ ----
0x00000000ff840000            0x57000             0xffff C:\Windows\system32\lsm.exe
0x0000000077c90000           0x1a9000             0xffff C:\Windows\SYSTEM32\ntdll.dll
0x0000000077a70000           0x11f000             0xffff C:\Windows\system32\kernel32.dll
0x000007fefdcb0000            0x6b000             0xffff C:\Windows\system32\KERNELBASE.dll
0x000007fefe7b0000            0x9f000             0xffff C:\Windows\system32\msvcrt.dll
0x000007fefe720000            0x1f000             0xffff C:\Windows\SYSTEM32\sechost.dll
0x000007fefdfb0000           0x12d000             0xffff C:\Windows\system32\RPCRT4.dll
0x000007fefd760000             0xa000             0xffff C:\Windows\system32\SYSNTFY.dll
0x000007fefd5e0000             0x8000             0xffff C:\Windows\system32\WMsgAPI.dll
0x000007fefd810000             0xf000                0x1 C:\Windows\system32\CRYPTBASE.dll
0x000007fefce20000             0xd000                0x1 C:\Windows\system32\pcwum.dll
0x000007fefd8c0000            0x14000                0x1 C:\Windows\system32\RpcRtRemote.dll
0x000007fefd4d0000             0xb000                0x1 C:\Windows\system32\secur32.dll
0x000007fefd780000            0x25000                0x2 C:\Windows\system32\SSPICLI.DLL
0x000007fefce10000             0xa000                0x1 C:\Windows\system32\credssp.dll
0x000007fefe390000            0xdb000                0x1 C:\Windows\system32\ADVAPI32.dll
************************************************************************
svchost.exe pid:    588
Command line : C:\Windows\system32\svchost.exe -k DcomLaunch
Service Pack 1

Base                             Size          LoadCount Path
------------------ ------------------ ------------------ ----
0x00000000ff9a0000             0xb000             0xffff C:\Windows\system32\svchost.exe
0x0000000077c90000           0x1a9000             0xffff C:\Windows\SYSTEM32\ntdll.dll
0x0000000077a70000           0x11f000             0xffff C:\Windows\system32\kernel32.dll
0x000007fefdcb0000            0x6b000             0xffff C:\Windows\system32\KERNELBASE.dll
0x000007fefe7b0000            0x9f000             0xffff C:\Windows\system32\msvcrt.dll
0x000007fefe720000            0x1f000             0xffff C:\Windows\SYSTEM32\sechost.dll
0x000007fefdfb0000           0x12d000             0xffff C:\Windows\system32\RPCRT4.dll
0x000007fefcd20000            0x67000                0x1 c:\windows\system32\umpnpmgr.dll
0x000007fefcd00000            0x1f000                0x1 c:\windows\system32\SPINF.dll
0x0000000077b90000            0xfa000               0x44 C:\Windows\system32\USER32.dll
0x000007fefe740000            0x67000               0x3d C:\Windows\system32\GDI32.dll
0x000007fefe710000             0xe000                0xd C:\Windows\system32\LPK.dll
0x000007fefe850000            0xc9000                0xd C:\Windows\system32\USP10.dll
0x000007fefcce0000            0x12000                0x1 c:\windows\system32\DEVRTL.dll
0x000007fefe0e0000            0x2e000                0x2 C:\Windows\system32\IMM32.DLL
0x000007fefebc0000           0x109000                0x1 C:\Windows\system32\MSCTF.dll
0x000007fefd8c0000            0x14000                0x1 C:\Windows\system32\RpcRtRemote.dll
0x000007fefdac0000            0x1e000                0x1 C:\Windows\system32\USERENV.dll
0x000007fefdab0000             0xf000                0x1 C:\Windows\system32\profapi.dll
0x000007fefccc0000            0x1b000                0x4 C:\Windows\system32\GPAPI.dll
0x000007fefd810000             0xf000                0x2 C:\Windows\system32\CRYPTBASE.dll
0x000007fefcc90000            0x2c000                0x1 c:\windows\system32\umpo.dll
0x000007fefd8e0000            0x3d000                0x3 c:\windows\system32\WINSTA.dll
0x000007fefe470000           0x1d7000                0x1 C:\Windows\system32\SETUPAPI.dll
0x000007fefded0000            0x36000               0x19 C:\Windows\system32\CFGMGR32.dll
0x000007fefe390000            0xdb000               0x24 C:\Windows\system32\ADVAPI32.dll
0x000007feffcc0000            0xd7000                0xd C:\Windows\system32\OLEAUT32.dll
0x000007fefe9a0000           0x203000               0x15 C:\Windows\system32\ole32.dll
0x000007fefdc90000            0x1a000                0x1 C:\Windows\system32\DEVOBJ.dll
0x000007fefce20000             0xd000                0x1 c:\windows\system32\pcwum.DLL
0x000007fefcbc0000            0x81000             0xffff c:\windows\system32\rpcss.dll
0x000007fefd780000            0x25000             0xffff c:\windows\system32\SspiCli.dll
0x000007fefce10000             0xa000                0x1 C:\Windows\system32\credssp.dll
0x000007fefe650000            0x99000                0x2 C:\Windows\system32\CLBCatQ.DLL
0x000007fefcc50000            0x2d000                0x1 C:\Windows\system32\ntmarta.dll
0x000007fefe110000            0x52000                0x1 C:\Windows\system32\WLDAP32.dll
0x000007fef9f10000            0x32000                0x1 C:\Windows\system32\wbem\wmidcprv.dll
0x000007fef9dd0000            0xe2000                0x2 C:\Windows\system32\wbem\FastProx.dll
0x000007fefa260000            0x86000                0x5 C:\Windows\system32\wbemcomn.dll
0x000007feffda0000            0x4d000                0x7 C:\Windows\system32\WS2_32.dll
0x000007fefebb0000             0x8000                0x4 C:\Windows\system32\NSI.dll
0x000007fef9b50000            0x27000                0x2 C:\Windows\system32\NTDSAPI.dll
0x000007fef9ae0000             0xf000                0x1 C:\Windows\system32\wbem\wbemprox.dll
0x000007fefd1e0000            0x17000                0x1 C:\Windows\system32\CRYPTSP.dll
0x000007fefcf10000            0x47000                0x1 C:\Windows\system32\rsaenh.dll
0x000007fef9900000            0x14000                0x1 C:\Windows\system32\wbem\wbemsvc.dll
0x000007fef96e0000            0x26000                0x1 C:\Windows\system32\wbem\wmiutils.dll
0x000007fefde90000            0x3a000                0x1 C:\Windows\system32\WINTRUST.dll
0x000007fefdd20000           0x167000                0x1 C:\Windows\system32\CRYPT32.dll
0x000007fefdc80000             0xf000                0x2 C:\Windows\system32\MSASN1.dll
0x000007fefd7b0000            0x57000             0xffff C:\Windows\system32\apphelp.dll
0x000007fefc810000            0x11000                0x1 C:\Windows\system32\WTSAPI32.dll
************************************************************************
VBoxService.ex pid:    652
Command line : C:\Windows\System32\VBoxService.exe
Service Pack 1

Base                             Size          LoadCount Path
------------------ ------------------ ------------------ ----
0x000000013fb90000           0x2a0000             0xffff C:\Windows\System32\VBoxService.exe
0x0000000077c90000           0x1a9000             0xffff C:\Windows\SYSTEM32\ntdll.dll
0x0000000077a70000           0x11f000             0xffff C:\Windows\system32\kernel32.dll
0x000007fefdcb0000            0x6b000             0xffff C:\Windows\system32\KERNELBASE.dll
0x000007fefdbd0000            0x18000             0xffff C:\Windows\System32\MPR.dll
0x0000000077b90000            0xfa000             0xffff C:\Windows\system32\USER32.dll
0x000007fefe740000            0x67000             0xffff C:\Windows\system32\GDI32.dll
0x000007fefe710000             0xe000             0xffff C:\Windows\system32\LPK.dll
0x000007fefe850000            0xc9000             0xffff C:\Windows\system32\USP10.dll
0x000007fefe7b0000            0x9f000             0xffff C:\Windows\system32\msvcrt.dll
0x000007fefe390000            0xdb000             0xffff C:\Windows\system32\ADVAPI32.dll
0x000007fefe720000            0x1f000             0xffff C:\Windows\SYSTEM32\sechost.dll
0x000007fefdfb0000           0x12d000             0xffff C:\Windows\system32\RPCRT4.dll
0x000007fefef30000           0xd88000             0xffff C:\Windows\system32\SHELL32.dll
0x000007feffdf0000            0x71000             0xffff C:\Windows\system32\SHLWAPI.dll
0x000007fefcc80000             0xc000             0xffff C:\Windows\System32\VERSION.dll
0x000007fefe0e0000            0x2e000                0x2 C:\Windows\system32\IMM32.DLL
0x000007fefebc0000           0x109000                0x1 C:\Windows\system32\MSCTF.dll
0x000007feffda0000            0x4d000                0x6 C:\Windows\system32\ws2_32.dll
0x000007fefebb0000             0x8000                0xb C:\Windows\system32\NSI.dll
0x000007fefd940000            0x27000                0x2 C:\Windows\system32\iphlpapi.dll
0x000007fefd930000             0xb000                0x2 C:\Windows\System32\WINNSI.DLL
0x000007fefcc50000            0x2d000                0x1 C:\Windows\System32\ntmarta.dll
0x000007fefe110000            0x52000                0x1 C:\Windows\system32\WLDAP32.dll
0x0000000077e60000             0x7000                0x2 C:\Windows\system32\psapi.dll
0x000007fefc990000           0x225000                0x1 C:\Windows\system32\VBoxMRXNP.dll
0x000007fefc950000             0xa000                0x1 C:\Windows\System32\drprov.dll
0x000007fefd8e0000            0x3d000                0x2 C:\Windows\System32\WINSTA.dll
0x000007fefc920000            0x22000                0x1 C:\Windows\System32\ntlanman.dll
0x000007fefc900000            0x1c000                0x1 C:\Windows\System32\davclnt.dll
0x000007fefc8f0000             0xa000                0x1 C:\Windows\System32\DAVHLPR.dll
0x000007fefd4d0000             0xb000                0x1 C:\Windows\system32\secur32.dll
0x000007fefd780000            0x25000                0x3 C:\Windows\System32\SSPICLI.DLL
0x000007fefc810000            0x11000                0x1 C:\Windows\system32\wtsapi32.dll
0x000007fefc610000            0x18000                0x1 C:\Windows\System32\dhcpcsvc.DLL
0x000007fefd180000            0x55000                0x2 C:\Windows\system32\mswsock.dll
0x000007fefc960000             0x7000                0x1 C:\Windows\System32\wshtcpip.dll
************************************************************************
svchost.exe pid:    720
Command line : C:\Windows\system32\svchost.exe -k RPCSS
Service Pack 1

Base                             Size          LoadCount Path
------------------ ------------------ ------------------ ----
0x00000000ff9a0000             0xb000             0xffff C:\Windows\system32\svchost.exe
0x0000000077c90000           0x1a9000             0xffff C:\Windows\SYSTEM32\ntdll.dll
0x0000000077a70000           0x11f000             0xffff C:\Windows\system32\kernel32.dll
0x000007fefdcb0000            0x6b000             0xffff C:\Windows\system32\KERNELBASE.dll
0x000007fefe7b0000            0x9f000             0xffff C:\Windows\system32\msvcrt.dll
0x000007fefe720000            0x1f000             0xffff C:\Windows\SYSTEM32\sechost.dll
0x000007fefdfb0000           0x12d000             0xffff C:\Windows\system32\RPCRT4.dll
0x000007fefc970000            0x14000                0x1 c:\windows\system32\rpcepmap.dll
0x000007fefd8c0000            0x14000                0x3 C:\Windows\system32\RpcRtRemote.dll
0x000007fefd4d0000             0xb000                0x1 C:\Windows\system32\secur32.dll
0x000007fefd780000            0x25000             0xffff C:\Windows\system32\SSPICLI.DLL
0x000007fefce10000             0xa000                0x1 C:\Windows\system32\credssp.dll
0x000007fefd810000             0xf000                0x2 C:\Windows\system32\CRYPTBASE.dll
0x000007fefcbc0000            0x81000             0xffff c:\windows\system32\rpcss.dll
0x000007fefe390000            0xdb000                0x4 C:\Windows\system32\ADVAPI32.dll
0x000007fefd1e0000            0x17000                0x1 C:\Windows\system32\CRYPTSP.dll
0x000007fefcf10000            0x47000                0x1 C:\Windows\system32\rsaenh.dll
0x000007feffda0000            0x4d000                0x7 C:\Windows\system32\WS2_32.dll
0x000007fefebb0000             0x8000                0x7 C:\Windows\system32\NSI.dll
0x000007fefd180000            0x55000                0x3 C:\Windows\system32\mswsock.dll
0x0000000077b90000            0xfa000               0x1e C:\Windows\system32\user32.dll
0x000007fefe740000            0x67000               0x1b C:\Windows\system32\GDI32.dll
0x000007fefe710000             0xe000                0x7 C:\Windows\system32\LPK.dll
0x000007fefe850000            0xc9000                0x7 C:\Windows\system32\USP10.dll
0x000007fefe0e0000            0x2e000                0x2 C:\Windows\system32\IMM32.DLL
0x000007fefebc0000           0x109000                0x1 C:\Windows\system32\MSCTF.dll
0x000007fefc960000             0x7000                0x1 C:\Windows\System32\wshtcpip.dll
0x000007fefd170000             0x7000                0x1 C:\Windows\System32\wship6.dll
0x000007fefc830000            0xbb000                0x1 C:\Windows\system32\FirewallAPI.dll
0x000007fefcc80000             0xc000                0x1 C:\Windows\system32\VERSION.dll
0x000007fefe650000            0x99000                0x1 C:\Windows\system32\CLBCatQ.DLL
0x000007fefe9a0000           0x203000                0x3 C:\Windows\system32\ole32.dll
0x000007feffcc0000            0xd7000                0x1 C:\Windows\system32\OLEAUT32.dll
0x000007fefb3d0000            0x53000                0x1 C:\Windows\system32\fwpuclnt.dll
************************************************************************
svchost.exe pid:    816
Command line : C:\Windows\System32\svchost.exe -k LocalServiceNetworkRestricted
Service Pack 1

Base                             Size          LoadCount Path
------------------ ------------------ ------------------ ----
0x00000000ff9a0000             0xb000             0xffff C:\Windows\System32\svchost.exe
0x0000000077c90000           0x1a9000             0xffff C:\Windows\SYSTEM32\ntdll.dll
0x0000000077a70000           0x11f000             0xffff C:\Windows\system32\kernel32.dll
0x000007fefdcb0000            0x6b000             0xffff C:\Windows\system32\KERNELBASE.dll
0x000007fefe7b0000            0x9f000             0xffff C:\Windows\system32\msvcrt.dll
0x000007fefe720000            0x1f000             0xffff C:\Windows\SYSTEM32\sechost.dll
0x000007fefdfb0000           0x12d000             0xffff C:\Windows\system32\RPCRT4.dll
0x000007fefe9a0000           0x203000               0x31 C:\Windows\system32\ole32.dll
0x000007fefe740000            0x67000               0xd2 C:\Windows\system32\GDI32.dll
0x0000000077b90000            0xfa000               0xed C:\Windows\system32\USER32.dll
0x000007fefe710000             0xe000               0x2e C:\Windows\system32\LPK.dll
0x000007fefe850000            0xc9000               0x2e C:\Windows\system32\USP10.dll
0x000007fefe0e0000            0x2e000                0x2 C:\Windows\system32\IMM32.DLL
0x000007fefebc0000           0x109000                0x1 C:\Windows\system32\MSCTF.dll
0x000007fefd810000             0xf000                0x6 C:\Windows\System32\CRYPTBASE.dll
0x000007fefe390000            0xdb000               0x5c C:\Windows\system32\ADVAPI32.dll
0x000007fefc470000           0x196000               0x45 c:\windows\system32\wevtsvc.dll
0x000007fefd8c0000            0x14000                0x1 C:\Windows\System32\RpcRtRemote.dll
0x000007fefd4d0000             0xb000                0x1 C:\Windows\System32\secur32.dll
0x000007fefd780000            0x25000                0x3 C:\Windows\System32\SSPICLI.DLL
0x000007fefce10000             0xa000                0x1 C:\Windows\System32\credssp.dll
0x000007feffda0000            0x4d000               0x16 C:\Windows\system32\WS2_32.dll
0x000007fefebb0000             0x8000               0x24 C:\Windows\system32\NSI.dll
0x000007fefd180000            0x55000                0x3 C:\Windows\system32\mswsock.dll
0x000007fefc960000             0x7000                0x1 C:\Windows\System32\wshtcpip.dll
0x000007fefd170000             0x7000                0x1 C:\Windows\System32\wship6.dll
0x000007fefccc0000            0x1b000                0x4 C:\Windows\System32\GPAPI.dll
0x000007fefc080000            0xac000                0x1 c:\windows\system32\audiosrv.dll
0x000007fefc050000            0x2c000                0x1 c:\windows\system32\POWRPROF.dll
0x000007fefe470000           0x1d7000                0x2 C:\Windows\system32\SETUPAPI.dll
0x000007fefded0000            0x36000                0x9 C:\Windows\system32\CFGMGR32.dll
0x000007feffcc0000            0xd7000               0x1a C:\Windows\system32\OLEAUT32.dll
0x000007fefdc90000            0x1a000                0x2 C:\Windows\system32\DEVOBJ.dll
0x000007fefc000000            0x4b000                0x5 c:\windows\system32\MMDevAPI.DLL
0x000007fefbea0000           0x12c000                0x9 c:\windows\system32\PROPSYS.dll
0x000007fefc130000             0x9000                0x1 c:\windows\system32\AVRT.dll
0x000007fefe650000            0x99000                0x1 C:\Windows\system32\CLBCatQ.DLL
0x000007fefd8e0000            0x3d000                0x1 C:\Windows\System32\WINSTA.dll
0x000007fefb4e0000             0xa000                0x1 c:\windows\system32\lmhsvc.dll
0x000007fefd940000            0x27000                0x6 c:\windows\system32\IPHLPAPI.DLL
0x000007fefd930000             0xb000                0x8 c:\windows\system32\WINNSI.DLL
0x000007fefb4c0000             0x8000                0x1 c:\windows\system32\nrpsrv.DLL
0x000007fefb430000            0x51000                0x1 c:\windows\system32\dhcpcore.dll
0x000007fefd000000            0x5b000                0x2 c:\windows\system32\DNSAPI.dll
0x000007fefc830000            0xbb000                0x3 C:\Windows\System32\firewallapi.dll
0x000007fefcc80000             0xc000                0x3 C:\Windows\System32\VERSION.dll
0x000007fefb380000            0x3b000                0x1 C:\Windows\System32\dhcpcore6.dll
0x000007fefb320000            0x11000                0x1 C:\Windows\System32\dhcpcsvc6.DLL
0x000007feffdf0000            0x71000                0xb C:\Windows\system32\SHLWAPI.dll
0x000007fefd1e0000            0x17000                0x2 C:\Windows\System32\CRYPTSP.dll
0x000007fefcf10000            0x47000                0x1 C:\Windows\system32\rsaenh.dll
0x000007fefc610000            0x18000                0x1 C:\Windows\System32\dhcpcsvc.DLL
0x000007fefb4f0000            0x4f000                0x1 C:\Windows\System32\audioses.dll
0x000007fef9740000            0x1c000                0x1 c:\windows\system32\wscsvc.dll
0x000007fefd980000           0x125000                0x1 c:\windows\system32\dbghelp.dll
0x000007fef9ae0000             0xf000                0x1 C:\Windows\system32\wbem\wbemprox.dll
0x000007fefa260000            0x86000                0x2 C:\Windows\system32\wbemcomn.dll
0x000007fef9900000            0x14000                0x1 C:\Windows\system32\wbem\wbemsvc.dll
0x000007fef9dd0000            0xe2000                0x1 C:\Windows\system32\wbem\fastprox.dll
0x000007fef9b50000            0x27000                0x1 C:\Windows\system32\NTDSAPI.dll
0x000007fef7c00000            0xad000                0x1 C:\Windows\system32\wuapi.dll
0x000007fefdd20000           0x167000                0x4 C:\Windows\system32\CRYPT32.dll
0x000007fefdc80000             0xf000                0x4 C:\Windows\system32\MSASN1.dll
0x000007fef8280000            0x1b000                0x1 C:\Windows\system32\Cabinet.dll
0x000007fefde90000            0x3a000                0x1 C:\Windows\system32\WINTRUST.dll
0x000007fefdab0000             0xf000                0x3 C:\Windows\System32\profapi.dll
0x000007fefdac0000            0x1e000                0x2 C:\Windows\System32\USERENV.dll
0x000007fefdb50000            0x15000                0x1 C:\Windows\System32\wkscli.dll
0x000007fefdba0000             0xc000                0x1 C:\Windows\System32\netutils.dll
0x000007fef6b00000            0x31000                0x3 c:\windows\system32\provsvc.dll
0x000007fef5b70000            0xee000                0x1 C:\Windows\system32\actxprxy.dll
0x000007fef9760000             0xc000                0x1 C:\Windows\System32\npmproxy.dll
0x000007fefa570000            0x33000                0x2 C:\Windows\system32\FunDisc.dll
0x000007fefb950000            0x19000                0x2 C:\Windows\system32\ATL.DLL
0x000007fef9b80000           0x1f2000                0x1 C:\Windows\System32\msxml6.dll
0x000007fef3c20000            0x17000                0x1 C:\Windows\system32\fdproxy.dll
0x000007fef3ad0000            0x44000                0x2 C:\Windows\System32\P2P.dll
0x000007fef3a30000            0x91000                0x1 C:\Windows\System32\P2PCOLLAB.dll
0x000007fefef30000           0xd88000                0x2 C:\Windows\system32\SHELL32.dll
0x000007fef6b40000            0x73000                0x1 C:\Program Files\Internet Explorer\ieproxy.dll
0x000007fefa2f0000            0x19000                0x1 C:\Windows\system32\pnrpnsp.dll
0x000007fefb540000            0x35000                0x1 C:\Windows\System32\XmlLite.dll
************************************************************************
svchost.exe pid:    852
Command line : C:\Windows\System32\svchost.exe -k LocalSystemNetworkRestricted
Service Pack 1

Base                             Size          LoadCount Path
------------------ ------------------ ------------------ ----
0x00000000ff9a0000             0xb000             0xffff C:\Windows\System32\svchost.exe
0x0000000077c90000           0x1a9000             0xffff C:\Windows\SYSTEM32\ntdll.dll
0x0000000077a70000           0x11f000             0xffff C:\Windows\system32\kernel32.dll
0x000007fefdcb0000            0x6b000             0xffff C:\Windows\system32\KERNELBASE.dll
0x000007fefe7b0000            0x9f000             0xffff C:\Windows\system32\msvcrt.dll
0x000007fefe720000            0x1f000             0xffff C:\Windows\SYSTEM32\sechost.dll
0x000007fefdfb0000           0x12d000             0xffff C:\Windows\system32\RPCRT4.dll
0x000007fefe9a0000           0x203000               0x49 C:\Windows\system32\ole32.dll
0x000007fefe740000            0x67000              0x1c2 C:\Windows\system32\GDI32.dll
0x0000000077b90000            0xfa000              0x1e4 C:\Windows\system32\USER32.dll
0x000007fefe710000             0xe000               0x61 C:\Windows\system32\LPK.dll
0x000007fefe850000            0xc9000               0x61 C:\Windows\system32\USP10.dll
0x000007fefe0e0000            0x2e000                0x4 C:\Windows\system32\IMM32.DLL
0x000007fefebc0000           0x109000                0x2 C:\Windows\system32\MSCTF.dll
0x000007fefd810000             0xf000                0x3 C:\Windows\System32\CRYPTBASE.dll
0x000007fefe390000            0xdb000               0x32 C:\Windows\system32\ADVAPI32.dll
0x000007fefc080000            0xac000                0x1 c:\windows\system32\audiosrv.dll
0x000007fefc050000            0x2c000                0x1 c:\windows\system32\POWRPROF.dll
0x000007fefe470000           0x1d7000                0xa C:\Windows\system32\SETUPAPI.dll
0x000007fefded0000            0x36000               0x1c C:\Windows\system32\CFGMGR32.dll
0x000007feffcc0000            0xd7000               0x27 C:\Windows\system32\OLEAUT32.dll
0x000007fefdc90000            0x1a000                0xa C:\Windows\system32\DEVOBJ.dll
0x000007fefc000000            0x4b000                0x5 c:\windows\system32\MMDevAPI.DLL
0x000007fefbea0000           0x12c000                0xa c:\windows\system32\PROPSYS.dll
0x000007fefc130000             0x9000                0x1 c:\windows\system32\AVRT.dll
0x000007fefe650000            0x99000                0x1 C:\Windows\system32\CLBCatQ.DLL
0x000007feffdf0000            0x71000               0x2b C:\Windows\system32\SHLWAPI.dll
0x000007fefba70000            0xac000                0x1 c:\windows\system32\cscsvc.dll
0x000007fefdac0000            0x1e000                0x9 c:\windows\system32\USERENV.dll
0x000007fefdab0000             0xf000                0xb c:\windows\system32\profapi.dll
0x000007fefce20000             0xd000                0x1 C:\Windows\System32\pcwum.dll
0x000007fefb970000            0x30000                0x1 C:\Windows\System32\PeerDist.dll
0x000007fefd3b0000            0x2f000                0x1 C:\Windows\System32\AUTHZ.dll
0x000007fefb740000           0x127000                0x1 C:\Windows\system32\taskschd.dll
0x000007fefd780000            0x25000                0x3 C:\Windows\System32\SspiCli.dll
0x000007fefb5d0000            0x3d000                0x1 C:\Windows\System32\mstask.dll
0x000007fefc160000           0x1f4000                0x5 C:\Windows\WinSxS\amd64_microsoft.windows.common-controls_6595b64144ccf1df_6.0.7601.17514_none_fa396087175ac9ac\COMCTL32.dll
0x000007fefd1e0000            0x17000                0x1 C:\Windows\System32\CRYPTSP.dll
0x000007fefcf10000            0x47000                0x1 C:\Windows\system32\rsaenh.dll
0x000007fefd8c0000            0x14000                0x1 C:\Windows\System32\RpcRtRemote.dll
0x000007fefc810000            0x11000                0x8 C:\Windows\System32\WTSAPI32.dll
0x000007fefd8e0000            0x3d000                0x1 C:\Windows\System32\WINSTA.dll
0x000007fefccc0000            0x1b000                0x7 C:\Windows\System32\GPAPI.dll
0x000007fefb580000            0x10000                0x3 c:\windows\system32\uxsms.dll
0x000007fefa6d0000            0x32000                0x1 c:\windows\system32\pcasvc.dll
0x000007fefd7b0000            0x57000             0xffff c:\windows\system32\apphelp.dll
0x000007fefa7b0000            0x12000                0x1 c:\windows\system32\AEPIC.dll
0x0000000074630000             0x3000                0x2 c:\windows\system32\sfc.dll
0x000007fefa7a0000            0x10000                0x2 c:\windows\system32\sfc_os.DLL
0x000007fefcc80000             0xc000                0x4 c:\windows\system32\VERSION.dll
0x000007fefd3f0000            0x6d000                0x1 c:\windows\system32\wevtapi.dll
0x000007fefa310000            0x22000                0x1 c:\windows\system32\trkwks.dll
0x000007fef9710000            0x19000                0x2 c:\windows\system32\wdi.dll
0x000007fef93f0000            0xbd000                0x1 C:\Windows\system32\PortableDeviceApi.dll
0x000007fef9330000             0xc000                0x1 C:\Windows\SYSTEM32\APPHLPDM.DLL
0x000007fefef30000           0xd88000                0xd C:\Windows\system32\SHELL32.dll
0x000007fef9340000            0x7c000                0x1 C:\Windows\System32\wer.dll
0x000007fef9280000            0x17000                0x1 C:\Windows\System32\portabledeviceconnectapi.dll
0x000007fefde90000            0x3a000                0x1 C:\Windows\system32\WINTRUST.dll
0x000007fefdd20000           0x167000                0x4 C:\Windows\system32\CRYPT32.dll
0x000007fefdc80000             0xf000                0x7 C:\Windows\system32\MSASN1.dll
0x000007fef7f20000            0x3f000                0x1 C:\Windows\system32\cscobj.dll
0x000007fef3df0000            0x5c000                0x1 c:\windows\system32\netman.dll
0x000007fefebb0000             0x8000               0x15 C:\Windows\system32\NSI.dll
0x000007fefd930000             0xb000                0x5 c:\windows\system32\WINNSI.DLL
0x000007fef5250000           0x28b000                0x1 C:\Windows\System32\netshell.dll
0x000007fefd940000            0x27000                0x3 C:\Windows\System32\IPHLPAPI.DLL
0x000007fefb8b0000            0x15000                0x1 C:\Windows\System32\nlaapi.dll
0x000007fef3d10000            0xd8000                0x1 C:\Windows\System32\RASDLG.dll
0x000007fef66c0000            0x3a000                0x1 C:\Windows\System32\MPRAPI.dll
0x000007fef3c60000            0x62000                0x2 C:\Windows\System32\RASAPI32.dll
0x000007fef8d40000            0x1c000                0x3 C:\Windows\System32\rasman.dll
0x000007feffda0000            0x4d000                0xd C:\Windows\system32\WS2_32.dll
0x000007fefa9e0000            0x11000                0x1 C:\Windows\System32\rtutils.dll
0x000007fefb8e0000             0xc000                0x2 C:\Windows\System32\dsrole.dll
0x000007fef3b90000            0x84000                0x1 C:\Windows\system32\netcfgx.dll
0x000007fefcce0000            0x12000                0x2 C:\Windows\System32\devrtl.DLL
0x000007fef39f0000            0x3c000                0x7 c:\windows\system32\listsvc.dll
0x000007fefc830000            0xbb000                0x2 C:\Windows\system32\FirewallAPI.dll
0x000007fef5b70000            0xee000                0x1 C:\Windows\system32\actxprxy.dll
0x000007fef3950000            0x39000                0x1 C:\Windows\System32\IdListen.dll
0x000007fefb540000            0x35000                0x2 C:\Windows\System32\XmlLite.dll
0x000007fefdbb0000            0x16000                0x1 C:\Windows\System32\NETAPI32.dll
0x000007fefdba0000             0xc000                0x4 C:\Windows\System32\netutils.dll
0x000007fefdb70000            0x23000                0x2 C:\Windows\System32\srvcli.dll
0x000007fefdb50000            0x15000                0x3 C:\Windows\System32\wkscli.dll
0x000007fefdb30000            0x14000                0x3 C:\Windows\System32\SAMCLI.DLL
0x000007fefd360000            0x4e000                0x2 C:\Windows\System32\ncrypt.dll
0x000007fefd330000            0x22000                0x2 C:\Windows\System32\bcrypt.dll
0x000007fef38a0000            0x6b000                0x1 C:\Windows\system32\hnetcfg.dll
0x000007fefb950000            0x19000                0x1 C:\Windows\system32\ATL.DLL
0x000007fefd920000             0xb000                0x2 C:\Windows\system32\slc.dll
0x000007fef9ae0000             0xf000                0x1 C:\Windows\system32\wbem\wbemprox.dll
0x000007fefa260000            0x86000                0x2 C:\Windows\system32\wbemcomn.dll
0x000007fef9900000            0x14000                0x1 C:\Windows\system32\wbem\wbemsvc.dll
0x000007fef3860000            0x3d000                0x1 C:\Windows\system32\hgprint.dll
0x000007fef87b0000            0x71000                0x1 C:\Windows\system32\WINSPOOL.DRV
0x000007fef9dd0000            0xe2000                0x1 C:\Windows\system32\wbem\fastprox.dll
0x000007fef9b50000            0x27000                0x1 C:\Windows\system32\NTDSAPI.dll
0x000007fefdae0000            0x1d000                0x3 C:\Windows\System32\SAMLIB.dll
0x000007fefbfd0000            0x24000                0x1 C:\Windows\System32\shacct.dll
0x000007fef2d40000            0xa0000                0x1 C:\Windows\WinSxS\amd64_microsoft.windows.common-controls_6595b64144ccf1df_5.82.7601.17514_none_a4d6a923711520a9\COMCTL32.dll
0x000007fef85a0000             0xf000                0x1 C:\Windows\System32\cscapi.dll
0x000007fef2bb0000            0x21000                0x2 c:\windows\system32\wpdbusenum.dll
************************************************************************
svchost.exe pid:    876
Command line : C:\Windows\system32\svchost.exe -k netsvcs
Service Pack 1

Base                             Size          LoadCount Path
------------------ ------------------ ------------------ ----
0x00000000ff9a0000             0xb000             0xffff C:\Windows\system32\svchost.exe
0x0000000077c90000           0x1a9000             0xffff C:\Windows\SYSTEM32\ntdll.dll
0x0000000077a70000           0x11f000             0xffff C:\Windows\system32\kernel32.dll
0x000007fefdcb0000            0x6b000             0xffff C:\Windows\system32\KERNELBASE.dll
0x000007fefe7b0000            0x9f000             0xffff C:\Windows\system32\msvcrt.dll
0x000007fefe720000            0x1f000             0xffff C:\Windows\SYSTEM32\sechost.dll
0x000007fefdfb0000           0x12d000             0xffff C:\Windows\system32\RPCRT4.dll
0x000007fefe9a0000           0x203000               0x61 C:\Windows\system32\ole32.dll
0x000007fefe740000            0x67000              0x1a9 C:\Windows\system32\GDI32.dll
0x0000000077b90000            0xfa000              0x1d8 C:\Windows\system32\USER32.dll
0x000007fefe710000             0xe000               0x5f C:\Windows\system32\LPK.dll
0x000007fefe850000            0xc9000               0x5f C:\Windows\system32\USP10.dll
0x000007fefe0e0000            0x2e000                0x2 C:\Windows\system32\IMM32.DLL
0x000007fefebc0000           0x109000                0x1 C:\Windows\system32\MSCTF.dll
0x000007fefd810000             0xf000                0x2 C:\Windows\system32\CRYPTBASE.dll
0x000007fefe390000            0xdb000               0x4f C:\Windows\system32\ADVAPI32.dll
0x000007fefb9a0000            0xc2000                0x9 c:\windows\system32\gpsvc.dll
0x000007fefccc0000            0x1b000                0xd c:\windows\system32\GPAPI.dll
0x000007fefe110000            0x52000                0xa C:\Windows\system32\WLDAP32.dll
0x000007fefd4d0000             0xb000                0xa c:\windows\system32\Secur32.dll
0x000007fefd780000            0x25000               0x12 c:\windows\system32\SSPICLI.DLL
0x000007fefebb0000             0x8000               0x37 C:\Windows\system32\NSI.dll
0x000007fefd760000             0xa000                0xb c:\windows\system32\SYSNTFY.dll
0x000007fefb8b0000            0x15000                0xa c:\windows\system32\nlaapi.dll
0x000007fefb870000            0x37000                0x1 c:\windows\system32\profsvc.dll
0x000007feffcc0000            0xd7000               0x39 C:\Windows\system32\OLEAUT32.dll
0x000007fefdac0000            0x1e000                0x5 c:\windows\system32\USERENV.dll
0x000007fefdab0000             0xf000                0x7 c:\windows\system32\profapi.dll
0x000007feffdf0000            0x71000                0xb C:\Windows\system32\SHLWAPI.dll
0x000007fefb950000            0x19000                0x3 c:\windows\system32\ATL.DLL
0x000007fefb8f0000            0x10000                0x1 c:\windows\system32\themeservice.dll
0x000007fefd8c0000            0x14000                0x1 C:\Windows\system32\RpcRtRemote.dll
0x000007fefd8e0000            0x3d000                0x2 C:\Windows\system32\WINSTA.dll
0x000007fefe650000            0x99000                0x1 C:\Windows\system32\CLBCatQ.DLL
0x000007fefd1e0000            0x17000                0x5 C:\Windows\system32\CRYPTSP.dll
0x000007fefcf10000            0x47000                0x1 C:\Windows\system32\rsaenh.dll
0x000007fefb8e0000             0xc000                0x2 C:\Windows\system32\dsrole.dll
0x000007fefd920000             0xb000                0x4 C:\Windows\system32\slc.dll
0x000007fefb590000            0x14000                0x1 c:\windows\system32\sens.dll
0x000007feffda0000            0x4d000               0x21 C:\Windows\system32\WS2_32.dll
0x000007fefded0000            0x36000               0x26 C:\Windows\system32\CFGMGR32.dll
0x000007fefe470000           0x1d7000                0x7 C:\Windows\system32\SETUPAPI.dll
0x000007fefdc90000            0x1a000                0x7 C:\Windows\system32\DEVOBJ.dll
0x000007fefb1a0000           0x112000                0x1 c:\windows\system32\schedsvc.dll
0x000007fefce20000             0xd000                0x2 c:\windows\system32\pcwum.dll
0x000007fefef30000           0xd88000                0x5 C:\Windows\system32\SHELL32.dll
0x000007fefdbb0000            0x16000                0x4 c:\windows\system32\NETAPI32.dll
0x000007fefdba0000             0xc000                0xd c:\windows\system32\netutils.dll
0x000007fefdb70000            0x23000                0x5 c:\windows\system32\srvcli.dll
0x000007fefdb50000            0x15000                0x5 c:\windows\system32\wkscli.dll
0x000007fefd3f0000            0x6d000                0xe c:\windows\system32\wevtapi.dll
0x000007fefd3b0000            0x2f000                0x3 c:\windows\system32\AUTHZ.dll
0x000007fefcd90000            0x39000                0x1 c:\windows\system32\UBPM.dll
0x000007fefb110000             0xa000                0x2 c:\windows\system32\ktmw32.dll
0x000007fefb540000            0x35000                0x1 c:\windows\system32\XmlLite.dll
0x000007fefde90000            0x3a000                0x2 C:\Windows\system32\WINTRUST.dll
0x000007fefdd20000           0x167000                0x6 C:\Windows\system32\CRYPT32.dll
0x000007fefdc80000             0xf000                0x7 C:\Windows\system32\MSASN1.dll
0x000007fefce10000             0xa000                0x1 C:\Windows\system32\credssp.dll
0x000007fefaf00000            0x56000                0x3 C:\Windows\system32\FVEAPI.dll
0x000007fefaef0000             0x9000                0x3 C:\Windows\system32\tbs.dll
0x000007fefaee0000             0x9000                0x3 C:\Windows\system32\FVECERTS.dll
0x000007fefdb00000            0x30000                0x4 C:\Windows\system32\LOGONCLI.DLL
0x000007fefad40000             0xf000                0x2 C:\Windows\system32\wiarpc.dll
0x000007fefac40000            0x77000                0x1 C:\Windows\system32\taskcomp.dll
0x000007fefcc80000             0xc000                0x6 C:\Windows\system32\VERSION.dll
0x000007fefcc50000            0x2d000                0x1 C:\Windows\system32\ntmarta.dll
0x000007fefd180000            0x55000                0x6 C:\Windows\system32\mswsock.dll
0x000007fefc960000             0x7000                0x1 C:\Windows\System32\wshtcpip.dll
0x000007fefd170000             0x7000                0x1 C:\Windows\System32\wship6.dll
0x000007fefd2f0000            0x32000                0x1 C:\Windows\system32\netjoin.dll
0x000007fefc810000            0x11000                0x3 C:\Windows\system32\WTSAPI32.dll
0x000007fefdae0000            0x1d000                0x2 C:\Windows\system32\SAMLIB.dll
0x000007fefbe40000            0x56000                0x1 C:\Windows\system32\UxTheme.dll
0x000007fefc160000           0x1f4000                0x2 C:\Windows\WinSxS\amd64_microsoft.windows.common-controls_6595b64144ccf1df_6.0.7601.17514_none_fa396087175ac9ac\comctl32.dll
0x000007fefbea0000           0x12c000                0x4 C:\Windows\system32\PROPSYS.dll
0x000007fefa340000            0x40000                0x1 c:\windows\system32\wbem\wmisvc.dll
0x000007fefa260000            0x86000                0xf C:\Windows\system32\wbemcomn.dll
0x000007fefa040000            0x3d000                0x1 c:\windows\system32\srvsvc.dll
0x000007fefd940000            0x27000                0x7 c:\windows\system32\IPHLPAPI.DLL
0x000007fefd930000             0xb000                0x8 c:\windows\system32\WINNSI.DLL
0x000007fef9ff0000            0x25000                0x2 c:\windows\system32\browser.dll
0x000007fef9f50000            0x92000                0x1 c:\windows\system32\iphlpsvc.dll
0x000007fefc830000            0xbb000                0x4 c:\windows\system32\FirewallAPI.dll
0x000007fefb3d0000            0x53000                0x2 c:\windows\system32\fwpuclnt.dll
0x000007fefa9e0000            0x11000                0x1 c:\windows\system32\rtutils.dll
0x000007fef9ec0000            0x42000                0x1 c:\windows\system32\sqmapi.dll
0x000007fef9d80000            0x47000                0x1 c:\windows\system32\WDSCORE.dll
0x000007fef9b40000             0x8000                0x1 C:\Windows\system32\SSCORE.DLL
0x000007fef9af0000            0x50000                0x2 C:\Windows\system32\CLUSAPI.DLL
0x000007fefd4e0000            0x14000                0x2 C:\Windows\system32\cryptdll.dll
0x000007fef9ac0000            0x19000                0x1 C:\Windows\system32\RESUTILS.DLL
0x000007fefa0a0000           0x1b0000                0x1 C:\Windows\system32\VSSAPI.DLL
0x000007fefa080000            0x17000                0x2 C:\Windows\system32\VssTrace.DLL
0x000007fefdb30000            0x14000                0x1 C:\Windows\system32\samcli.dll
0x000007fef9990000           0x12f000                0x1 C:\Windows\system32\wbem\wbemcore.dll
0x000007fef9920000            0x6f000                0x3 C:\Windows\system32\wbem\esscli.dll
0x000007fef9dd0000            0xe2000                0x7 C:\Windows\system32\wbem\FastProx.dll
0x000007fef9b50000            0x27000                0x5 C:\Windows\system32\NTDSAPI.dll
0x000007fefb320000            0x11000                0x1 C:\Windows\system32\dhcpcsvc6.DLL
0x000007fef9900000            0x14000                0x1 C:\Windows\system32\wbem\wbemsvc.dll
0x000007fefc610000            0x18000                0x1 C:\Windows\system32\dhcpcsvc.DLL
0x000007fef9780000            0x74000                0x1 C:\Windows\System32\netprofm.dll
0x000007fefd000000            0x5b000                0x1 C:\Windows\system32\DNSAPI.dll
0x000007fef9770000             0x8000                0x1 C:\Windows\system32\rasadhlp.dll
0x000007fef96e0000            0x26000                0x1 C:\Windows\system32\wbem\wmiutils.dll
0x000007fefcce0000            0x12000                0x6 C:\Windows\system32\devrtl.DLL
0x000007fef9760000             0xc000                0x1 C:\Windows\System32\npmproxy.dll
0x000007fef93c0000            0x1a000                0x1 C:\Windows\system32\NCI.dll
0x000007fef92a0000            0x73000                0x1 C:\Windows\system32\wbem\repdrvfs.dll
0x000007fef91c0000            0xbc000                0x1 C:\Windows\system32\wbem\wmiprvsd.dll
0x000007fef91a0000            0x16000                0x2 C:\Windows\system32\NCObjAPI.DLL
0x000007fef9120000            0x7e000                0x1 C:\Windows\system32\wbem\wbemess.dll
0x000007fefcd00000            0x1f000                0x1 C:\Windows\system32\SPINF.dll
0x000007fef8960000            0x16000                0x1 C:\Windows\system32\wbem\ncprov.dll
0x000007fef6040000           0x260000                0x1 c:\windows\system32\wuaueng.dll
0x000007fef8980000           0x27a000                0x1 c:\windows\system32\ESENT.dll
0x000007fef87b0000            0x71000                0x1 c:\windows\system32\WINSPOOL.DRV
0x000007fefa5b0000            0x71000                0x2 c:\windows\system32\WINHTTP.dll
0x000007fefa3a0000            0x64000                0x2 c:\windows\system32\webio.dll
0x000007fef8280000            0x1b000                0x1 c:\windows\system32\Cabinet.dll
0x000007fef7f90000             0xf000                0x1 c:\windows\system32\mspatcha.dll
0x0000000077e60000             0x7000                0x1 C:\Windows\system32\psapi.dll
0x000007fefd5e0000             0x8000                0x1 C:\Windows\system32\WMsgAPI.dll
0x000007fef9340000            0x7c000                0x1 C:\Windows\system32\wer.dll
0x000007fefd7b0000            0x57000             0xffff C:\Windows\system32\apphelp.dll
0x000007fefaf80000            0x5e000                0x1 c:\windows\system32\shsvcs.dll
0x000007fefb650000            0x67000                0x2 C:\Windows\system32\ES.DLL
0x000007fefd820000            0x91000                0x1 C:\Windows\system32\SXS.DLL
0x000007fef5b70000            0xee000                0x1 C:\Windows\system32\actxprxy.dll
0x000007fef9840000            0x1d000                0x1 c:\windows\system32\mmcss.dll
0x000007fefc130000             0x9000                0x1 c:\windows\system32\AVRT.dll
0x000007fef3c60000            0x62000                0x1 C:\Windows\system32\RasApi32.dll
0x000007fef8d40000            0x1c000                0x1 C:\Windows\system32\rasman.dll
0x000007fef3720000            0x15000                0x1 c:\windows\system32\aelupsvc.dll
0x000007fefb150000            0x15000                0x1 c:\windows\system32\appinfo.dll
************************************************************************
svchost.exe pid:    472
Command line : C:\Windows\system32\svchost.exe -k LocalService
Service Pack 1

Base                             Size          LoadCount Path
------------------ ------------------ ------------------ ----
0x00000000ff9a0000             0xb000             0xffff C:\Windows\system32\svchost.exe
0x0000000077c90000           0x1a9000             0xffff C:\Windows\SYSTEM32\ntdll.dll
0x0000000077a70000           0x11f000             0xffff C:\Windows\system32\kernel32.dll
0x000007fefdcb0000            0x6b000             0xffff C:\Windows\system32\KERNELBASE.dll
0x000007fefe7b0000            0x9f000             0xffff C:\Windows\system32\msvcrt.dll
0x000007fefe720000            0x1f000             0xffff C:\Windows\SYSTEM32\sechost.dll
0x000007fefdfb0000           0x12d000             0xffff C:\Windows\system32\RPCRT4.dll
0x000007fefe9a0000           0x203000               0x27 C:\Windows\system32\ole32.dll
0x000007fefe740000            0x67000               0xbe C:\Windows\system32\GDI32.dll
0x0000000077b90000            0xfa000               0xcb C:\Windows\system32\USER32.dll
0x000007fefe710000             0xe000               0x27 C:\Windows\system32\LPK.dll
0x000007fefe850000            0xc9000               0x27 C:\Windows\system32\USP10.dll
0x000007fefe0e0000            0x2e000                0x2 C:\Windows\system32\IMM32.DLL
0x000007fefebc0000           0x109000                0x1 C:\Windows\system32\MSCTF.dll
0x000007fefd810000             0xf000                0x2 C:\Windows\system32\CRYPTBASE.dll
0x000007fefe390000            0xdb000               0x17 C:\Windows\system32\ADVAPI32.dll
0x000007fefb650000            0x67000                0x2 c:\windows\system32\es.dll
0x000007feffcc0000            0xd7000               0x10 C:\Windows\system32\OLEAUT32.dll
0x000007fefd1e0000            0x17000                0x2 C:\Windows\system32\CRYPTSP.dll
0x000007fefcf10000            0x47000                0x1 C:\Windows\system32\rsaenh.dll
0x000007fefd8c0000            0x14000                0x1 C:\Windows\system32\RpcRtRemote.dll
0x000007fefe650000            0x99000                0x1 C:\Windows\system32\CLBCatQ.DLL
0x000007fefb4d0000             0xa000                0x1 c:\windows\system32\nsisvc.dll
0x000007fefebb0000             0x8000               0x45 C:\Windows\system32\NSI.dll
0x000007fefd820000            0x91000                0x1 C:\Windows\system32\SXS.DLL
0x000007fef9780000            0x74000                0x1 c:\windows\system32\netprofm.dll
0x000007fefb8b0000            0x15000                0x2 c:\windows\system32\nlaapi.dll
0x000007fef9760000             0xc000                0x1 C:\Windows\System32\npmproxy.dll
0x000007fef9710000            0x19000                0x2 c:\windows\system32\wdi.dll
0x000007fef94b0000            0xd8000                0x1 C:\Windows\system32\perftrack.dll
0x000007fef9340000            0x7c000                0x1 C:\Windows\system32\wer.dll
0x000007fefb5b0000            0x18000                0x1 C:\Windows\system32\dwmapi.dll
0x000007fefd4d0000             0xb000                0x1 C:\Windows\system32\Secur32.dll
0x000007fefd780000            0x25000                0x6 C:\Windows\system32\SSPICLI.DLL
0x000007fefa7b0000            0x12000                0x1 C:\Windows\system32\AEPIC.dll
0x0000000074630000             0x3000                0x1 C:\Windows\system32\sfc.dll
0x000007fefa7a0000            0x10000                0x1 C:\Windows\system32\sfc_os.DLL
0x000007fefcc80000             0xc000                0x8 C:\Windows\system32\VERSION.dll
0x000007fefd940000            0x27000               0x14 C:\Windows\system32\IPHLPAPI.DLL
0x000007fefd930000             0xb000                0xe C:\Windows\system32\WINNSI.DLL
0x000007feffda0000            0x4d000               0x21 C:\Windows\system32\WS2_32.dll
0x000007fefccc0000            0x1b000                0x2 C:\Windows\system32\GPAPI.dll
0x000007feffdf0000            0x71000                0xb C:\Windows\system32\SHLWAPI.dll
0x000007fefce10000             0xa000                0x1 C:\Windows\system32\credssp.dll
0x000007fefd000000            0x5b000                0x3 C:\Windows\system32\DNSAPI.dll
0x000007fefa380000            0x15000                0x1 C:\Windows\system32\napinsp.dll
0x000007fefa2f0000            0x19000                0x2 C:\Windows\system32\pnrpnsp.dll
0x000007fefd180000            0x55000                0x4 C:\Windows\System32\mswsock.dll
0x000007fefa250000             0xb000                0x1 C:\Windows\System32\winrnr.dll
0x000007fefc960000             0x7000                0x1 C:\Windows\System32\wshtcpip.dll
0x000007fefd170000             0x7000                0x1 C:\Windows\System32\wship6.dll
0x000007fef9770000             0x8000                0x1 C:\Windows\system32\rasadhlp.dll
0x000007fefb3d0000            0x53000                0x1 C:\Windows\System32\fwpuclnt.dll
0x000007fefb320000            0x11000                0x1 C:\Windows\system32\dhcpcsvc6.DLL
0x000007fefc610000            0x18000                0x2 C:\Windows\system32\dhcpcsvc.DLL
0x000007fef8d60000             0x8000                0x1 c:\windows\system32\fdphost.dll
0x000007fef7ef0000            0x23000                0x6 C:\Windows\system32\fdwsd.dll
0x000007fefb950000            0x19000                0x9 C:\Windows\system32\ATL.DLL
0x000007fefd330000            0x22000                0x7 C:\Windows\system32\bcrypt.dll
0x000007fefdd20000           0x167000                0x7 C:\Windows\system32\CRYPT32.dll
0x000007fefdc80000             0xf000                0x7 C:\Windows\system32\MSASN1.dll
0x000007fef3cd0000            0x3b000                0x6 C:\Windows\system32\MLANG.dll
0x000007fefa630000            0x91000                0x7 C:\Windows\system32\wsdapi.dll
0x000007fefa450000           0x11f000                0x7 C:\Windows\system32\webservices.dll
0x000007fefc830000            0xbb000                0x7 C:\Windows\system32\FirewallAPI.dll
0x000007fefa5b0000            0x71000                0x9 C:\Windows\system32\WINHTTP.dll
0x000007fefa3a0000            0x64000                0x9 C:\Windows\system32\webio.dll
0x000007fef3c40000            0x1b000                0x2 C:\Windows\system32\fdssdp.dll
0x000007fefa020000            0x11000                0x2 C:\Windows\system32\SSDPAPI.dll
0x000007fef3c20000            0x17000                0x1 C:\Windows\system32\fdproxy.dll
0x000007fefce50000            0x4c000                0x1 C:\Windows\system32\bcryptprimitives.dll
0x000007fefb540000            0x35000                0x1 C:\Windows\system32\XmlLite.dll
0x000007fefa570000            0x33000                0x1 C:\Windows\system32\FunDisc.dll
0x000007fef9b80000           0x1f2000                0x1 C:\Windows\System32\msxml6.dll
0x000007fefbea0000           0x12c000                0x2 C:\Windows\system32\propsys.dll
0x000007fef6b40000            0x73000                0x1 C:\Program Files\Internet Explorer\ieproxy.dll
************************************************************************
svchost.exe pid:   1044
Command line : C:\Windows\system32\svchost.exe -k NetworkService
Service Pack 1

Base                             Size          LoadCount Path
------------------ ------------------ ------------------ ----
0x00000000ff9a0000             0xb000             0xffff C:\Windows\system32\svchost.exe
0x0000000077c90000           0x1a9000             0xffff C:\Windows\SYSTEM32\ntdll.dll
0x0000000077a70000           0x11f000             0xffff C:\Windows\system32\kernel32.dll
0x000007fefdcb0000            0x6b000             0xffff C:\Windows\system32\KERNELBASE.dll
0x000007fefe7b0000            0x9f000             0xffff C:\Windows\system32\msvcrt.dll
0x000007fefe720000            0x1f000             0xffff C:\Windows\SYSTEM32\sechost.dll
0x000007fefdfb0000           0x12d000             0xffff C:\Windows\system32\RPCRT4.dll
0x000007fefe9a0000           0x203000                0xe C:\Windows\system32\ole32.dll
0x000007fefe740000            0x67000               0x4e C:\Windows\system32\GDI32.dll
0x0000000077b90000            0xfa000               0x56 C:\Windows\system32\USER32.dll
0x000007fefe710000             0xe000               0x13 C:\Windows\system32\LPK.dll
0x000007fefe850000            0xc9000               0x13 C:\Windows\system32\USP10.dll
0x000007fefe0e0000            0x2e000                0x2 C:\Windows\system32\IMM32.DLL
0x000007fefebc0000           0x109000                0x1 C:\Windows\system32\MSCTF.dll
0x000007fefd810000             0xf000                0x3 C:\Windows\system32\CRYPTBASE.dll
0x000007fefe390000            0xdb000               0x10 C:\Windows\system32\ADVAPI32.dll
0x000007fefb490000            0x30000                0x2 c:\windows\system32\dnsrslvr.dll
0x000007feffda0000            0x4d000               0x18 C:\Windows\system32\WS2_32.dll
0x000007fefebb0000             0x8000               0x48 C:\Windows\system32\NSI.dll
0x000007fefd000000            0x5b000                0x5 c:\windows\system32\DNSAPI.dll
0x000007fefd930000             0xb000               0x14 c:\windows\system32\WINNSI.DLL
0x000007fefb3d0000            0x53000                0x3 C:\Windows\system32\Fwpuclnt.dll
0x000007fefb350000             0x7000                0x1 C:\Windows\System32\dnsext.dll
0x000007fefdac0000            0x1e000                0x1 C:\Windows\system32\USERENV.dll
0x000007fefdab0000             0xf000                0x1 C:\Windows\system32\profapi.dll
0x000007fefccc0000            0x1b000                0x2 C:\Windows\system32\GPAPI.dll
0x000007fefd8c0000            0x14000                0x1 C:\Windows\system32\RpcRtRemote.dll
0x000007fefd180000            0x55000                0x4 C:\Windows\system32\mswsock.dll
0x000007fefd170000             0x7000                0x1 C:\Windows\System32\wship6.dll
0x000007fefd940000            0x27000               0x11 C:\Windows\system32\iphlpapi.dll
0x000007fefb320000            0x11000                0x2 C:\Windows\system32\dhcpcsvc6.DLL
0x000007fefc610000            0x18000                0x4 C:\Windows\system32\dhcpcsvc.DLL
0x000007fefc960000             0x7000                0x1 C:\Windows\System32\wshtcpip.dll
0x000007fefa830000            0x20000                0x1 c:\windows\system32\wkssvc.dll
0x000007fefdba0000             0xc000                0x5 c:\windows\system32\netutils.dll
0x000007fefd2f0000            0x32000                0x1 c:\windows\system32\netjoin.dll
0x000007fefd780000            0x25000                0x8 C:\Windows\system32\SspiCli.dll
0x000007fefa720000            0x30000                0x1 c:\windows\system32\cryptsvc.dll
0x000007fefdd20000           0x167000                0x2 C:\Windows\system32\CRYPT32.dll
0x000007fefdc80000             0xf000                0x2 C:\Windows\system32\MSASN1.dll
0x000007fefa7d0000            0x4e000                0x1 c:\windows\system32\nlasvc.dll
0x000007fefd3f0000            0x6d000                0x8 c:\windows\system32\wevtapi.dll
0x000007fefa410000            0x38000                0x1 c:\windows\system32\ncsi.dll
0x000007fefa5b0000            0x71000                0x2 c:\windows\system32\WINHTTP.dll
0x000007fefa3a0000            0x64000                0x2 c:\windows\system32\webio.dll
0x000007fefded0000            0x36000                0x1 C:\Windows\system32\CFGMGR32.dll
0x000007fefd4d0000             0xb000                0x2 C:\Windows\system32\secur32.dll
0x000007fefce10000             0xa000                0x1 C:\Windows\system32\credssp.dll
0x000007fefa0a0000           0x1b0000                0x1 C:\Windows\system32\VSSAPI.DLL
0x000007fefb950000            0x19000                0x1 C:\Windows\system32\ATL.DLL
0x000007fefa080000            0x17000                0x2 C:\Windows\system32\VssTrace.DLL
0x000007fefa020000            0x11000                0x1 C:\Windows\system32\ssdpapi.dll
0x000007feffcc0000            0xd7000                0x6 C:\Windows\system32\OLEAUT32.dll
0x000007fefdb30000            0x14000                0x1 C:\Windows\system32\samcli.dll
0x000007fefdae0000            0x1d000                0x1 C:\Windows\system32\SAMLIB.dll
0x000007fefd1e0000            0x17000                0x1 C:\Windows\system32\CRYPTSP.dll
0x000007fefcf10000            0x47000                0x1 C:\Windows\system32\rsaenh.dll
0x000007fefe650000            0x99000                0x1 C:\Windows\system32\CLBCatQ.DLL
0x000007fefb650000            0x67000                0x1 C:\Windows\system32\es.dll
0x000007fefdb50000            0x15000                0x1 C:\Windows\system32\wkscli.dll
0x000007fefbea0000           0x12c000                0x2 C:\Windows\system32\PROPSYS.dll
0x000007fefd330000            0x22000                0x2 C:\Windows\system32\bcrypt.dll
0x000007fefce50000            0x4c000                0x1 C:\Windows\system32\bcryptprimitives.dll
0x000007fefc810000            0x11000                0x1 C:\Windows\system32\WTSAPI32.dll
0x000007fefd8e0000            0x3d000                0x1 C:\Windows\system32\WINSTA.dll
0x000007feffdf0000            0x71000                0x1 C:\Windows\system32\SHLWAPI.dll
0x000007fefdb00000            0x30000                0x1 C:\Windows\system32\logoncli.dll
0x000007fefe110000            0x52000                0x1 C:\Windows\system32\WLDAP32.dll
0x000007fef9770000             0x8000                0x1 C:\Windows\system32\rasadhlp.dll
0x000007fef8980000           0x27a000                0x1 C:\Windows\system32\ESENT.dll
0x0000000077e60000             0x7000                0x1 C:\Windows\system32\psapi.dll
************************************************************************
spoolsv.exe pid:   1208
Command line : C:\Windows\System32\spoolsv.exe
Service Pack 1

Base                             Size          LoadCount Path
------------------ ------------------ ------------------ ----
0x00000000ff190000            0x8c000             0xffff C:\Windows\System32\spoolsv.exe
0x0000000077c90000           0x1a9000             0xffff C:\Windows\SYSTEM32\ntdll.dll
0x0000000077a70000           0x11f000             0xffff C:\Windows\system32\kernel32.dll
0x000007fefdcb0000            0x6b000             0xffff C:\Windows\system32\KERNELBASE.dll
0x000007fefe7b0000            0x9f000             0xffff C:\Windows\system32\msvcrt.dll
0x000007fefe720000            0x1f000             0xffff C:\Windows\SYSTEM32\sechost.dll
0x000007fefdfb0000           0x12d000             0xffff C:\Windows\system32\RPCRT4.dll
0x0000000077b90000            0xfa000             0xffff C:\Windows\system32\USER32.dll
0x000007fefe740000            0x67000             0xffff C:\Windows\system32\GDI32.dll
0x000007fefe710000             0xe000             0xffff C:\Windows\system32\LPK.dll
0x000007fefe850000            0xc9000             0xffff C:\Windows\system32\USP10.dll
0x000007fefc050000            0x2c000             0xffff C:\Windows\System32\POWRPROF.dll
0x000007fefe470000           0x1d7000             0xffff C:\Windows\system32\SETUPAPI.dll
0x000007fefded0000            0x36000             0xffff C:\Windows\system32\CFGMGR32.dll
0x000007fefe390000            0xdb000             0xffff C:\Windows\system32\ADVAPI32.dll
0x000007feffcc0000            0xd7000             0xffff C:\Windows\system32\OLEAUT32.dll
0x000007fefe9a0000           0x203000             0xffff C:\Windows\system32\ole32.dll
0x000007fefdc90000            0x1a000             0xffff C:\Windows\system32\DEVOBJ.dll
0x000007fefd000000            0x5b000             0xffff C:\Windows\System32\DNSAPI.dll
0x000007feffda0000            0x4d000             0xffff C:\Windows\system32\WS2_32.dll
0x000007fefebb0000             0x8000             0xffff C:\Windows\system32\NSI.dll
0x000007fefe0e0000            0x2e000                0x2 C:\Windows\system32\IMM32.DLL
0x000007fefebc0000           0x109000                0x1 C:\Windows\system32\MSCTF.dll
0x000007fefd810000             0xf000                0x2 C:\Windows\System32\CRYPTBASE.dll
0x000007fefd920000             0xb000                0x1 C:\Windows\System32\slc.dll
0x000007fefd8c0000            0x14000                0x1 C:\Windows\System32\RpcRtRemote.dll
0x000007fefd4d0000             0xb000                0x1 C:\Windows\System32\secur32.dll
0x000007fefd780000            0x25000                0x2 C:\Windows\System32\SSPICLI.DLL
0x000007fefce10000             0xa000                0x1 C:\Windows\System32\credssp.dll
0x000007fefd940000            0x27000                0x4 C:\Windows\System32\IPHLPAPI.DLL
0x000007fefd930000             0xb000                0x4 C:\Windows\System32\WINNSI.DLL
0x000007fefd180000            0x55000                0x4 C:\Windows\system32\mswsock.dll
0x000007fefc960000             0x7000                0x1 C:\Windows\System32\wshtcpip.dll
0x000007fefd170000             0x7000                0x1 C:\Windows\System32\wship6.dll
0x000007fef9770000             0x8000                0x1 C:\Windows\System32\rasadhlp.dll
0x000007fefb3d0000            0x53000                0x1 C:\Windows\System32\fwpuclnt.dll
0x000007fefe650000            0x99000                0x1 C:\Windows\system32\CLBCatQ.DLL
0x000007fef8940000            0x13000                0x1 C:\Windows\system32\umb.dll
0x000007fefb950000            0x19000                0x4 C:\Windows\system32\ATL.DLL
0x000007fefde90000            0x3a000                0x1 C:\Windows\system32\WINTRUST.dll
0x000007fefdd20000           0x167000                0x1 C:\Windows\system32\CRYPT32.dll
0x000007fefdc80000             0xf000                0x2 C:\Windows\system32\MSASN1.dll
0x000007fef8850000            0xee000                0x3 C:\Windows\System32\localspl.dll
0x000007fef8830000            0x12000                0xb C:\Windows\System32\SPOOLSS.DLL
0x000007fefdb70000            0x23000                0x3 C:\Windows\System32\srvcli.dll
0x000007fef87b0000            0x71000                0x4 C:\Windows\system32\winspool.drv
0x000007fef87a0000            0x10000                0x1 C:\Windows\System32\PrintIsolationProxy.dll
0x000007fef8790000             0xe000                0x1 C:\Windows\System32\FXSMON.DLL
0x000007fef8750000            0x34000                0x1 C:\Windows\System32\tcpmon.dll
0x000007fef8740000             0xb000                0x1 C:\Windows\System32\snmpapi.dll
0x000007fef8720000            0x14000                0x1 C:\Windows\System32\wsnmp32.dll
0x000007fef9b80000           0x1f2000                0x1 C:\Windows\System32\msxml6.dll
0x000007feffdf0000            0x71000                0x1 C:\Windows\system32\SHLWAPI.dll
0x000007fef8710000             0xf000                0x1 C:\Windows\System32\usbmon.dll
0x000007fef8700000             0x7000                0x1 C:\Windows\system32\wls0wndh.dll
0x000007fef86c0000            0x3a000                0x1 C:\Windows\System32\WSDMon.dll
0x000007fefa630000            0x91000                0x1 C:\Windows\System32\wsdapi.dll
0x000007fefa450000           0x11f000                0x1 C:\Windows\System32\webservices.dll
0x000007fefc830000            0xbb000                0x1 C:\Windows\System32\FirewallAPI.dll
0x000007fefcc80000             0xc000                0x2 C:\Windows\System32\VERSION.dll
0x000007fefa570000            0x33000                0x2 C:\Windows\system32\FunDisc.dll
0x000007fef86b0000            0x10000                0x1 C:\Windows\system32\fdPnp.dll
0x000007fef86a0000             0xe000                0x1 C:\Windows\system32\spool\PRTPROCS\x64\winprint.dll
0x000007fefdac0000            0x1e000                0x2 C:\Windows\System32\USERENV.dll
0x000007fefdab0000             0xf000                0x2 C:\Windows\System32\profapi.dll
0x000007fefccc0000            0x1b000                0x3 C:\Windows\System32\GPAPI.dll
0x000007fefb8e0000             0xc000                0x1 C:\Windows\System32\dsrole.dll
0x000007fef85e0000            0xbd000                0x1 C:\Windows\System32\win32spl.dll
0x000007fefcce0000            0x12000                0x1 C:\Windows\System32\DEVRTL.dll
0x000007fefcd00000            0x1f000                0x1 C:\Windows\System32\SPINF.dll
0x000007fef85b0000            0x2d000                0x1 C:\Windows\System32\inetpp.dll
0x000007fef9780000            0x74000                0x1 C:\Windows\System32\netprofm.dll
0x000007fefb8b0000            0x15000                0x1 C:\Windows\System32\nlaapi.dll
0x000007fefd1e0000            0x17000                0x2 C:\Windows\System32\CRYPTSP.dll
0x000007fefcf10000            0x47000                0x1 C:\Windows\system32\rsaenh.dll
0x000007fef9760000             0xc000                0x1 C:\Windows\System32\npmproxy.dll
0x000007fefd8e0000            0x3d000                0x2 C:\Windows\System32\WINSTA.dll
0x000007fef85a0000             0xf000                0x1 C:\Windows\System32\cscapi.dll
0x000007fefdba0000             0xc000                0x1 C:\Windows\System32\netutils.dll
0x000007fefc810000            0x11000                0x1 C:\Windows\System32\WTSAPI32.dll
************************************************************************
svchost.exe pid:   1248
Command line : C:\Windows\system32\svchost.exe -k LocalServiceNoNetwork
Service Pack 1

Base                             Size          LoadCount Path
------------------ ------------------ ------------------ ----
0x00000000ff9a0000             0xb000             0xffff C:\Windows\system32\svchost.exe
0x0000000077c90000           0x1a9000             0xffff C:\Windows\SYSTEM32\ntdll.dll
0x0000000077a70000           0x11f000             0xffff C:\Windows\system32\kernel32.dll
0x000007fefdcb0000            0x6b000             0xffff C:\Windows\system32\KERNELBASE.dll
0x000007fefe7b0000            0x9f000             0xffff C:\Windows\system32\msvcrt.dll
0x000007fefe720000            0x1f000             0xffff C:\Windows\SYSTEM32\sechost.dll
0x000007fefdfb0000           0x12d000             0xffff C:\Windows\system32\RPCRT4.dll
0x000007fefe9a0000           0x203000                0x9 C:\Windows\system32\ole32.dll
0x000007fefe740000            0x67000               0x72 C:\Windows\system32\GDI32.dll
0x0000000077b90000            0xfa000               0x7e C:\Windows\system32\USER32.dll
0x000007fefe710000             0xe000               0x1f C:\Windows\system32\LPK.dll
0x000007fefe850000            0xc9000               0x1f C:\Windows\system32\USP10.dll
0x000007fefe0e0000            0x2e000                0x2 C:\Windows\system32\IMM32.DLL
0x000007fefebc0000           0x109000                0x1 C:\Windows\system32\MSCTF.dll
0x000007fefd810000             0xf000                0x2 C:\Windows\system32\CRYPTBASE.dll
0x000007fefe390000            0xdb000               0x13 C:\Windows\system32\ADVAPI32.dll
0x000007fefa930000            0xb0000                0x1 c:\windows\system32\bfe.dll
0x000007fefd3b0000            0x2f000                0x4 c:\windows\system32\AUTHZ.dll
0x000007fefd920000             0xb000                0x1 c:\windows\system32\slc.dll
0x000007fefd780000            0x25000                0x4 C:\Windows\system32\SspiCli.dll
0x000007fefce20000             0xd000                0x1 C:\Windows\system32\pcwum.dll
0x000007fefd8c0000            0x14000                0x2 C:\Windows\system32\RpcRtRemote.dll
0x000007fefa850000            0xce000                0x1 c:\windows\system32\mpssvc.dll
0x000007fefc830000            0xbb000                0x4 c:\windows\system32\FirewallAPI.dll
0x000007fefcc80000             0xc000                0x9 c:\windows\system32\VERSION.dll
0x000007fefb3d0000            0x53000                0x1 c:\windows\system32\fwpuclnt.dll
0x000007fefebb0000             0x8000               0x11 C:\Windows\system32\NSI.dll
0x000007fefded0000            0x36000                0x1 C:\Windows\system32\CFGMGR32.dll
0x000007feffdf0000            0x71000                0x3 C:\Windows\system32\SHLWAPI.dll
0x000007fefd4d0000             0xb000                0x1 C:\Windows\system32\secur32.dll
0x000007fefce10000             0xa000                0x1 C:\Windows\system32\credssp.dll
0x000007fefdac0000            0x1e000                0x3 C:\Windows\system32\USERENV.dll
0x000007fefdab0000             0xf000                0x3 C:\Windows\system32\profapi.dll
0x000007fefccc0000            0x1b000                0x4 C:\Windows\system32\GPAPI.dll
0x000007feffda0000            0x4d000                0x8 C:\Windows\system32\WS2_32.dll
0x000007fefd940000            0x27000                0x3 C:\Windows\system32\IPHLPAPI.DLL
0x000007fefd930000             0xb000                0x3 C:\Windows\system32\WINNSI.DLL
0x000007fefb320000            0x11000                0x1 C:\Windows\system32\dhcpcsvc6.DLL
0x000007fefc610000            0x18000                0x1 C:\Windows\system32\dhcpcsvc.DLL
0x000007fefd180000            0x55000                0x3 C:\Windows\system32\mswsock.dll
0x000007fefc960000             0x7000                0x1 C:\Windows\System32\wshtcpip.dll
0x000007fefd170000             0x7000                0x1 C:\Windows\System32\wship6.dll
0x000007fefa820000             0xa000                0x1 C:\Windows\system32\wfapigp.dll
0x000007fefa750000            0x2c000                0x1 c:\windows\system32\dps.dll
0x000007feffcc0000            0xd7000                0x4 C:\Windows\system32\OLEAUT32.dll
0x000007fefe650000            0x99000                0x1 C:\Windows\system32\CLBCatQ.DLL
0x000007fefb740000           0x127000                0x1 C:\Windows\system32\taskschd.dll
0x000007fefcc50000            0x2d000                0x2 C:\Windows\system32\ntmarta.dll
0x000007fefe110000            0x52000                0x2 C:\Windows\system32\WLDAP32.dll
0x000007fefd330000            0x22000                0x1 C:\Windows\system32\bcrypt.dll
0x000007fef9710000            0x19000                0x8 C:\Windows\system32\wdi.dll
0x000007fef9590000           0x14a000                0x3 C:\Windows\system32\diagperf.dll
0x000007fef93e0000             0x8000                0x1 C:\Windows\system32\pnpts.dll
0x000007fef9780000            0x74000                0x1 C:\Windows\System32\netprofm.dll
0x000007fefb8b0000            0x15000                0x1 C:\Windows\System32\nlaapi.dll
0x000007fefd1e0000            0x17000                0x1 C:\Windows\system32\CRYPTSP.dll
0x000007fefcf10000            0x47000                0x1 C:\Windows\system32\rsaenh.dll
0x000007fef9320000             0xd000                0x1 C:\Windows\system32\wdiasqmmodule.dll
0x000007fef9760000             0xc000                0x1 C:\Windows\System32\npmproxy.dll
0x000007fefc140000            0x1d000                0x4 C:\Windows\system32\radardt.dll
0x000007fefc810000            0x11000                0x4 C:\Windows\system32\WTSAPI32.dll
0x000007fefd8e0000            0x3d000                0x1 C:\Windows\system32\WINSTA.dll
************************************************************************
svchost.exe pid:   1372
Command line : C:\Windows\system32\svchost.exe -k LocalServiceAndNoImpersonation
Service Pack 1

Base                             Size          LoadCount Path
------------------ ------------------ ------------------ ----
0x00000000ff9a0000             0xb000             0xffff C:\Windows\system32\svchost.exe
0x0000000077c90000           0x1a9000             0xffff C:\Windows\SYSTEM32\ntdll.dll
0x0000000077a70000           0x11f000             0xffff C:\Windows\system32\kernel32.dll
0x000007fefdcb0000            0x6b000             0xffff C:\Windows\system32\KERNELBASE.dll
0x000007fefe7b0000            0x9f000             0xffff C:\Windows\system32\msvcrt.dll
0x000007fefe720000            0x1f000             0xffff C:\Windows\SYSTEM32\sechost.dll
0x000007fefdfb0000           0x12d000             0xffff C:\Windows\system32\RPCRT4.dll
0x000007fefe9a0000           0x203000               0x11 C:\Windows\system32\ole32.dll
0x000007fefe740000            0x67000               0x73 C:\Windows\system32\GDI32.dll
0x0000000077b90000            0xfa000               0x7a C:\Windows\system32\USER32.dll
0x000007fefe710000             0xe000               0x1a C:\Windows\system32\LPK.dll
0x000007fefe850000            0xc9000               0x1a C:\Windows\system32\USP10.dll
0x000007fefe0e0000            0x2e000                0x2 C:\Windows\system32\IMM32.DLL
0x000007fefebc0000           0x109000                0x1 C:\Windows\system32\MSCTF.dll
0x000007fefd810000             0xf000                0x2 C:\Windows\system32\CRYPTBASE.dll
0x000007fefe390000            0xdb000                0x9 C:\Windows\system32\ADVAPI32.dll
0x000007fefa710000             0xc000                0x1 c:\windows\system32\fdrespub.dll
0x000007fefa630000            0x91000                0x2 c:\windows\system32\wsdapi.dll
0x000007feffda0000            0x4d000                0xa C:\Windows\system32\WS2_32.dll
0x000007fefebb0000             0x8000               0x1a C:\Windows\system32\NSI.dll
0x000007fefd940000            0x27000                0x6 c:\windows\system32\IPHLPAPI.DLL
0x000007fefd930000             0xb000                0x6 c:\windows\system32\WINNSI.DLL
0x000007fefa450000           0x11f000                0x2 c:\windows\system32\webservices.dll
0x000007fefc830000            0xbb000                0x4 c:\windows\system32\FirewallAPI.dll
0x000007fefcc80000             0xc000                0x4 c:\windows\system32\VERSION.dll
0x000007fefe650000            0x99000                0x1 C:\Windows\system32\CLBCatQ.DLL
0x000007feffcc0000            0xd7000                0x6 C:\Windows\system32\OLEAUT32.dll
0x000007fefa570000            0x33000                0x2 C:\Windows\system32\FunDisc.dll
0x000007fefb950000            0x19000                0x2 C:\Windows\system32\ATL.DLL
0x000007feffdf0000            0x71000                0x8 C:\Windows\system32\SHLWAPI.dll
0x000007fefb320000            0x11000                0x1 C:\Windows\system32\dhcpcsvc6.DLL
0x000007fefc610000            0x18000                0x1 C:\Windows\system32\dhcpcsvc.DLL
0x000007fefd180000            0x55000                0x3 C:\Windows\system32\mswsock.dll
0x000007fefd170000             0x7000                0x1 C:\Windows\System32\wship6.dll
0x000007fefc960000             0x7000                0x1 C:\Windows\System32\wshtcpip.dll
0x000007fefa5b0000            0x71000                0x1 C:\Windows\system32\WINHTTP.dll
0x000007fefa3a0000            0x64000                0x1 C:\Windows\system32\webio.dll
0x000007fefa780000             0xe000                0x2 C:\Windows\system32\HTTPAPI.dll
0x000007fefce20000             0xd000                0x1 C:\Windows\system32\pcwum.dll
0x000007fefdb50000            0x15000                0x1 C:\Windows\system32\wkscli.dll
0x000007fefdba0000             0xc000                0x1 C:\Windows\system32\netutils.dll
0x000007fef9b80000           0x1f2000                0x1 C:\Windows\System32\msxml6.dll
0x000007fefd1e0000            0x17000                0x3 C:\Windows\system32\CRYPTSP.dll
0x000007fefcf10000            0x47000                0x1 C:\Windows\system32\rsaenh.dll
0x000007fefb540000            0x35000                0x1 C:\Windows\system32\XmlLite.dll
0x000007fef8480000           0x11b000                0x1 c:\windows\system32\fntcache.dll
0x000007fefb110000             0xa000                0x1 c:\windows\system32\ktmw32.dll
0x000007fefcc50000            0x2d000                0x1 C:\Windows\system32\ntmarta.dll
0x000007fefe110000            0x52000                0x1 C:\Windows\system32\WLDAP32.dll
0x000007fef8000000            0x34000                0x1 c:\windows\system32\ssdpsrv.dll
0x000007fefd4d0000             0xb000                0x1 C:\Windows\system32\secur32.dll
0x000007fefd780000            0x25000                0x3 C:\Windows\system32\SSPICLI.DLL
0x000007fefce10000             0xa000                0x1 C:\Windows\system32\credssp.dll
0x000007fefd8c0000            0x14000                0x1 C:\Windows\system32\RpcRtRemote.dll
0x000007fef6700000            0x5b000                0x2 c:\windows\system32\upnphost.dll
0x000007fefef30000           0xd88000                0x3 C:\Windows\system32\SHELL32.dll
0x000007fefa020000            0x11000                0x2 c:\windows\system32\SSDPAPI.dll
0x000007fefdac0000            0x1e000                0x1 C:\Windows\system32\USERENV.dll
0x000007fefdab0000             0xf000                0x2 C:\Windows\system32\profapi.dll
0x000007fef64e0000           0x1d4000                0x1 C:\Windows\System32\msxml3.dll
0x000007fefc160000           0x1f4000                0x1 C:\Windows\WinSxS\amd64_microsoft.windows.common-controls_6595b64144ccf1df_6.0.7601.17514_none_fa396087175ac9ac\comctl32.dll
0x000007fef7fa0000            0x11000                0x1 C:\Windows\system32\udhisapi.dll
************************************************************************
TCPSVCS.EXE pid:   1416
Command line : C:\Windows\System32\tcpsvcs.exe
Service Pack 1

Base                             Size          LoadCount Path
------------------ ------------------ ------------------ ----
0x00000000ff700000             0x7000             0xffff C:\Windows\System32\tcpsvcs.exe
0x0000000077c90000           0x1a9000             0xffff C:\Windows\SYSTEM32\ntdll.dll
0x0000000077a70000           0x11f000             0xffff C:\Windows\system32\kernel32.dll
0x000007fefdcb0000            0x6b000             0xffff C:\Windows\system32\KERNELBASE.dll
0x000007fefe390000            0xdb000             0xffff C:\Windows\system32\ADVAPI32.dll
0x000007fefe7b0000            0x9f000             0xffff C:\Windows\system32\msvcrt.dll
0x000007fefe720000            0x1f000             0xffff C:\Windows\SYSTEM32\sechost.dll
0x000007fefdfb0000           0x12d000             0xffff C:\Windows\system32\RPCRT4.dll
0x000007fefa790000             0xa000                0x1 C:\Windows\system32\simptcp.dll
0x000007feffda0000            0x4d000                0x9 C:\Windows\system32\WS2_32.dll
0x000007fefebb0000             0x8000                0xa C:\Windows\system32\NSI.dll
0x000007fefd180000            0x55000                0x4 C:\Windows\system32\mswsock.dll
0x0000000077b90000            0xfa000               0x18 C:\Windows\system32\user32.dll
0x000007fefe740000            0x67000               0x15 C:\Windows\system32\GDI32.dll
0x000007fefe710000             0xe000                0x6 C:\Windows\system32\LPK.dll
0x000007fefe850000            0xc9000                0x6 C:\Windows\system32\USP10.dll
0x000007fefe0e0000            0x2e000                0x2 C:\Windows\system32\IMM32.DLL
0x000007fefebc0000           0x109000                0x1 C:\Windows\system32\MSCTF.dll
0x000007fefc960000             0x7000                0x1 C:\Windows\System32\wshtcpip.dll
0x000007fefb8b0000            0x15000                0x1 C:\Windows\system32\NLAapi.dll
0x000007fefa380000            0x15000                0x1 C:\Windows\system32\napinsp.dll
0x000007fefa2f0000            0x19000                0x2 C:\Windows\system32\pnrpnsp.dll
0x000007fefd000000            0x5b000                0x1 C:\Windows\System32\DNSAPI.dll
0x000007fefa250000             0xb000                0x1 C:\Windows\System32\winrnr.dll
0x000007fefd170000             0x7000                0x1 C:\Windows\System32\wship6.dll
************************************************************************
sppsvc.exe pid:   1508
Command line : C:\Windows\system32\sppsvc.exe
Service Pack 1

Base                             Size          LoadCount Path
------------------ ------------------ ------------------ ----
0x00000000ff020000           0x35f000             0xffff C:\Windows\system32\sppsvc.exe
0x0000000077c90000           0x1a9000             0xffff C:\Windows\SYSTEM32\ntdll.dll
0x0000000077a70000           0x11f000             0xffff C:\Windows\system32\kernel32.dll
0x000007fefdcb0000            0x6b000             0xffff C:\Windows\system32\KERNELBASE.dll
0x000007fefe390000            0xdb000             0xffff C:\Windows\system32\ADVAPI32.dll
0x000007fefe7b0000            0x9f000             0xffff C:\Windows\system32\msvcrt.dll
0x000007fefe720000            0x1f000             0xffff C:\Windows\SYSTEM32\sechost.dll
0x000007fefdfb0000           0x12d000             0xffff C:\Windows\system32\RPCRT4.dll
0x000007fefe9a0000           0x203000             0xffff C:\Windows\system32\ole32.dll
0x000007fefe740000            0x67000             0xffff C:\Windows\system32\GDI32.dll
0x0000000077b90000            0xfa000             0xffff C:\Windows\system32\USER32.dll
0x000007fefe710000             0xe000             0xffff C:\Windows\system32\LPK.dll
0x000007fefe850000            0xc9000             0xffff C:\Windows\system32\USP10.dll
0x000007fefe0e0000            0x2e000                0x2 C:\Windows\system32\IMM32.DLL
0x000007fefebc0000           0x109000                0x1 C:\Windows\system32\MSCTF.dll
0x000007fefd810000             0xf000                0x2 C:\Windows\system32\CRYPTBASE.dll
0x000007fefd8c0000            0x14000                0x1 C:\Windows\system32\RpcRtRemote.dll
0x000007fefd1e0000            0x17000                0x1 C:\Windows\system32\CRYPTSP.dll
0x000007fefcf10000            0x47000                0x1 C:\Windows\system32\rsaenh.dll
0x000007fef8210000            0x6b000                0x1 C:\Windows\system32\sppwinob.dll
0x000007fef62a0000           0x10d000                0x1 C:\Windows\system32\sppobjs.dll
0x000007fefd000000            0x5b000                0x1 C:\Windows\system32\DNSAPI.dll
0x000007feffda0000            0x4d000                0x1 C:\Windows\system32\WS2_32.dll
0x000007fefebb0000             0x8000                0x2 C:\Windows\system32\NSI.dll
0x000007feffcc0000            0xd7000                0x3 C:\Windows\system32\OLEAUT32.dll
0x000007fefe650000            0x99000                0x1 C:\Windows\system32\CLBCatQ.DLL
0x000007fefd780000            0x25000                0x1 C:\Windows\system32\SspiCli.dll
************************************************************************
svchost.exe pid:    948
Command line : C:\Windows\System32\svchost.exe -k secsvcs
Service Pack 1

Base                             Size          LoadCount Path
------------------ ------------------ ------------------ ----
0x00000000ff9a0000             0xb000             0xffff C:\Windows\System32\svchost.exe
0x0000000077c90000           0x1a9000             0xffff C:\Windows\SYSTEM32\ntdll.dll
0x0000000077a70000           0x11f000             0xffff C:\Windows\system32\kernel32.dll
0x000007fefdcb0000            0x6b000             0xffff C:\Windows\system32\KERNELBASE.dll
0x000007fefe7b0000            0x9f000             0xffff C:\Windows\system32\msvcrt.dll
0x000007fefe720000            0x1f000             0xffff C:\Windows\SYSTEM32\sechost.dll
0x000007fefdfb0000           0x12d000             0xffff C:\Windows\system32\RPCRT4.dll
0x000007fef8380000            0xfb000                0x1 c:\program files\windows defender\mpsvc.dll
0x000007fefe390000            0xdb000               0x14 C:\Windows\system32\ADVAPI32.dll
0x000007fefe9a0000           0x203000                0xd C:\Windows\system32\ole32.dll
0x000007fefe740000            0x67000               0x34 C:\Windows\system32\GDI32.dll
0x0000000077b90000            0xfa000               0x3b C:\Windows\system32\USER32.dll
0x000007fefe710000             0xe000                0xa C:\Windows\system32\LPK.dll
0x000007fefe850000            0xc9000                0xa C:\Windows\system32\USP10.dll
0x000007fefc810000            0x11000                0x1 C:\Windows\system32\WTSAPI32.dll
0x0000000074630000             0x3000                0x1 C:\Windows\system32\sfc.dll
0x000007fefa7a0000            0x10000                0x1 C:\Windows\system32\sfc_os.DLL
0x000007fef82f0000            0x90000                0x2 c:\program files\windows defender\MpClient.dll
0x000007feffcc0000            0xd7000                0x7 C:\Windows\system32\OLEAUT32.dll
0x000007fefdac0000            0x1e000                0x3 C:\Windows\system32\USERENV.dll
0x000007fefdab0000             0xf000                0x4 C:\Windows\system32\profapi.dll
0x000007fefde90000            0x3a000                0x4 C:\Windows\system32\WINTRUST.dll
0x000007fefdd20000           0x167000                0x9 C:\Windows\system32\CRYPT32.dll
0x000007fefdc80000             0xf000                0xc C:\Windows\system32\MSASN1.dll
0x000007fefcc80000             0xc000                0x4 C:\Windows\system32\VERSION.dll
0x000007fefef30000           0xd88000                0x2 C:\Windows\system32\SHELL32.dll
0x000007feffdf0000            0x71000                0x8 C:\Windows\system32\SHLWAPI.dll
0x000007fefe0e0000            0x2e000                0x2 C:\Windows\system32\IMM32.DLL
0x000007fefebc0000           0x109000                0x1 C:\Windows\system32\MSCTF.dll
0x000007fefccc0000            0x1b000                0x4 C:\Windows\System32\GPAPI.dll
0x000007fefd1e0000            0x17000                0x4 C:\Windows\System32\CRYPTSP.dll
0x000007fefcf10000            0x47000                0x1 C:\Windows\system32\rsaenh.dll
0x000007fefd810000             0xf000                0x2 C:\Windows\System32\CRYPTBASE.dll
0x000007fefe6f0000            0x17000                0x1 C:\Windows\system32\imagehlp.dll
0x000007fefd330000            0x22000                0x9 C:\Windows\System32\bcrypt.dll
0x000007fefce50000            0x4c000                0x1 C:\Windows\system32\bcryptprimitives.dll
0x000007fefd360000            0x4e000                0x1 C:\Windows\System32\ncrypt.dll
0x000007fef6490000            0x35000                0x1 c:\program files\windows defender\mprtp.dll
0x0000000077e60000             0x7000                0x2 C:\Windows\system32\PSAPI.DLL
0x000007fef63b0000            0xd3000                0x1 C:\Windows\System32\tdh.dll
0x0000000073220000           0x7d4000                0x1 C:\ProgramData\Microsoft\Windows Defender\Definition Updates\{D2B0B133-42ED-44D3-809A-46EBB62BA863}\mpengine.dll
0x000007fefd940000            0x27000                0x1 C:\Windows\system32\iphlpapi.dll
0x000007fefebb0000             0x8000                0x3 C:\Windows\system32\NSI.dll
0x000007fefd930000             0xb000                0x1 C:\Windows\System32\WINNSI.DLL
0x000007feffda0000            0x4d000                0x1 C:\Windows\system32\WS2_32.dll
0x000007fefcc50000            0x2d000                0x1 C:\Windows\System32\ntmarta.dll
0x000007fefe110000            0x52000                0x1 C:\Windows\system32\WLDAP32.dll
0x000007fefd4d0000             0xb000                0x1 C:\Windows\System32\secur32.dll
0x000007fefd780000            0x25000                0x5 C:\Windows\System32\SSPICLI.DLL
0x000007fefce10000             0xa000                0x1 C:\Windows\System32\credssp.dll
0x000007fefd8c0000            0x14000                0x1 C:\Windows\System32\RpcRtRemote.dll
0x000007fef7f60000            0x13000                0x1 C:\Windows\System32\wscapi.dll
0x000007fefe170000           0x178000                0x3 C:\Windows\system32\urlmon.dll
0x000007feffe70000           0x12a000                0x3 C:\Windows\system32\WININET.dll
0x000007fefecd0000           0x259000                0x4 C:\Windows\system32\iertutil.dll
0x000007fefe650000            0x99000                0x1 C:\Windows\system32\CLBCatQ.DLL
0x000007fefb540000            0x35000                0x1 C:\Windows\System32\XmlLite.dll
************************************************************************
wmpnetwk.exe pid:   1856
Command line : "C:\Program Files\Windows Media Player\wmpnetwk.exe"
Service Pack 1

Base                             Size          LoadCount Path
------------------ ------------------ ------------------ ----
0x00000000ff240000           0x17c000             0xffff C:\Program Files\Windows Media Player\wmpnetwk.exe
0x0000000077c90000           0x1a9000             0xffff C:\Windows\SYSTEM32\ntdll.dll
0x0000000077a70000           0x11f000             0xffff C:\Windows\system32\kernel32.dll
0x000007fefdcb0000            0x6b000             0xffff C:\Windows\system32\KERNELBASE.dll
0x000007fefe390000            0xdb000             0xffff C:\Windows\system32\ADVAPI32.dll
0x000007fefe7b0000            0x9f000             0xffff C:\Windows\system32\msvcrt.dll
0x000007fefe720000            0x1f000             0xffff C:\Windows\SYSTEM32\sechost.dll
0x000007fefdfb0000           0x12d000             0xffff C:\Windows\system32\RPCRT4.dll
0x0000000077b90000            0xfa000             0xffff C:\Windows\system32\USER32.dll
0x000007fefe740000            0x67000             0xffff C:\Windows\system32\GDI32.dll
0x000007fefe710000             0xe000             0xffff C:\Windows\system32\LPK.dll
0x000007fefe850000            0xc9000             0xffff C:\Windows\system32\USP10.dll
0x000007feffcc0000            0xd7000             0xffff C:\Windows\system32\OLEAUT32.dll
0x000007fefe9a0000           0x203000             0xffff C:\Windows\system32\ole32.dll
0x000007fefd970000             0x9000             0xffff C:\Windows\system32\WSOCK32.dll
0x000007feffda0000            0x4d000             0xffff C:\Windows\system32\WS2_32.dll
0x000007fefebb0000             0x8000             0xffff C:\Windows\system32\NSI.dll
0x000007fefd940000            0x27000             0xffff C:\Windows\system32\IPHLPAPI.DLL
0x000007fefd930000             0xb000             0xffff C:\Windows\system32\WINNSI.DLL
0x000007feffdf0000            0x71000             0xffff C:\Windows\system32\SHLWAPI.dll
0x000007fefdac0000            0x1e000             0xffff C:\Windows\system32\USERENV.dll
0x000007fefdab0000             0xf000             0xffff C:\Windows\system32\profapi.dll
0x000007fefc810000            0x11000             0xffff C:\Windows\system32\WTSAPI32.dll
0x000007fefe0e0000            0x2e000                0x2 C:\Windows\system32\IMM32.DLL
0x000007fefebc0000           0x109000                0x1 C:\Windows\system32\MSCTF.dll
0x000007fefd810000             0xf000                0x2 C:\Windows\system32\CRYPTBASE.dll
0x000007fefd8e0000            0x3d000                0x2 C:\Windows\system32\WINSTA.dll
0x000007fefcc50000            0x2d000                0x1 C:\Windows\system32\ntmarta.dll
0x000007fefe110000            0x52000                0x1 C:\Windows\system32\WLDAP32.dll
0x000007fef8170000            0x9e000                0x1 C:\Windows\system32\wmdrmdev.dll
0x000007fef8040000           0x128000                0x1 C:\Windows\system32\drmv2clt.dll
0x000007fefcc80000             0xc000                0x7 C:\Windows\system32\VERSION.dll
0x000007fefacd0000            0x6c000             0xffff C:\Windows\system32\MFPlat.DLL
0x000007fefc130000             0x9000             0xffff C:\Windows\system32\AVRT.dll
0x000007fefe470000           0x1d7000                0x5 C:\Windows\system32\SETUPAPI.dll
0x000007fefded0000            0x36000                0xc C:\Windows\system32\CFGMGR32.dll
0x000007fefdc90000            0x1a000                0x5 C:\Windows\system32\DEVOBJ.dll
0x000007fefef30000           0xd88000                0xb C:\Windows\system32\SHELL32.dll
0x000007fefde90000            0x3a000                0x3 C:\Windows\system32\WINTRUST.dll
0x000007fefdd20000           0x167000                0x7 C:\Windows\system32\CRYPT32.dll
0x000007fefdc80000             0xf000                0xa C:\Windows\system32\MSASN1.dll
0x000007fefe650000            0x99000                0x1 C:\Windows\system32\CLBCatQ.DLL
0x000007fefd1e0000            0x17000                0x2 C:\Windows\system32\CRYPTSP.dll
0x000007fefcf10000            0x47000                0x1 C:\Windows\system32\rsaenh.dll
0x000007fefd8c0000            0x14000                0x1 C:\Windows\system32\RpcRtRemote.dll
0x000007fef82a0000            0x45000                0x1 C:\Windows\system32\upnp.dll
0x000007fefa5b0000            0x71000                0x2 C:\Windows\system32\WINHTTP.dll
0x000007fefa3a0000            0x64000                0x2 C:\Windows\system32\webio.dll
0x000007fefa020000            0x11000                0x2 C:\Windows\system32\SSDPAPI.dll
0x000007fefd820000            0x91000                0x1 C:\Windows\system32\SXS.DLL
0x000007fefb320000            0x11000                0x1 C:\Windows\system32\dhcpcsvc6.DLL
0x000007fefc610000            0x18000                0x1 C:\Windows\system32\dhcpcsvc.DLL
0x000007fef6bc0000           0xe0c000                0x1 C:\Windows\system32\wmp.dll
0x000007fefbc20000           0x215000                0x4 C:\Windows\WinSxS\amd64_microsoft.windows.gdiplus_6595b64144ccf1df_1.1.7601.17514_none_2b24536c71ed437a\gdiplus.dll
0x000007fefb5b0000            0x18000                0x3 C:\Windows\system32\dwmapi.dll
0x0000000073a00000           0xc0c000                0x1 C:\Windows\system32\wmploc.dll
0x000007fef6b40000            0x73000                0x1 C:\Program Files\Internet Explorer\ieproxy.dll
0x000007fefafe0000           0x12a000                0x1 C:\Windows\system32\windowscodecs.dll
0x000007fef6b00000            0x31000                0x1 C:\Windows\System32\provsvc.dll
0x000007fefd920000             0xb000                0x2 C:\Windows\system32\slc.dll
0x000007fefd780000            0x25000                0x4 C:\Windows\system32\SspiCli.dll
0x000007fefdbb0000            0x16000                0x2 C:\Windows\system32\NETAPI32.dll
0x000007fefdba0000             0xc000                0x4 C:\Windows\system32\netutils.dll
0x000007fefdb70000            0x23000                0x2 C:\Windows\system32\srvcli.dll
0x000007fefdb50000            0x15000                0x4 C:\Windows\system32\wkscli.dll
0x000007fef6a80000            0x79000                0x1 C:\Windows\System32\wmpps.dll
0x000007fef6980000            0xff000                0x1 C:\Windows\system32\wmpmde.dll
0x000007fefa780000             0xe000                0x1 C:\Windows\system32\HTTPAPI.dll
0x000007fefce20000             0xd000                0x1 C:\Windows\system32\pcwum.dll
0x000007fefd180000            0x55000                0x3 C:\Windows\system32\mswsock.dll
0x000007fefc960000             0x7000                0x1 C:\Windows\System32\wshtcpip.dll
0x000007fefd170000             0x7000                0x1 C:\Windows\System32\wship6.dll
0x000007fef68a0000            0xd1000                0x1 C:\Windows\system32\BlackBox.dll
0x000007fef8cb0000            0x85000                0x2 C:\Windows\system32\WinSATAPI.dll
0x000007fef8c00000            0xa7000                0x2 C:\Windows\system32\dxgi.dll
0x000007fef9b80000           0x1f2000                0x1 C:\Windows\System32\msxml6.dll
0x000007fefe170000           0x178000                0x6 C:\Windows\system32\urlmon.dll
0x000007feffe70000           0x12a000                0x6 C:\Windows\system32\WININET.dll
0x000007fefecd0000           0x259000                0x8 C:\Windows\system32\iertutil.dll
0x000007fefc160000           0x1f4000                0x3 C:\Windows\WinSxS\amd64_microsoft.windows.common-controls_6595b64144ccf1df_6.0.7601.17514_none_fa396087175ac9ac\comctl32.dll
0x000007fefd000000            0x5b000                0x2 C:\Windows\system32\dnsapi.DLL
0x000007fefbea0000           0x12c000                0x5 C:\Windows\system32\PROPSYS.dll
0x000007fef6780000           0x11e000                0x1 C:\Windows\System32\msmpeg2enc.dll
0x000007fef6760000            0x16000                0x1 C:\Windows\system32\devenum.dll
0x000007fefb700000            0x3b000                0x2 C:\Windows\system32\WINMM.dll
0x000007fef9730000             0xd000                0x1 C:\Windows\system32\msdmo.dll
0x000007fef9780000            0x74000                0x1 C:\Windows\System32\netprofm.dll
0x000007fefb8b0000            0x15000                0x1 C:\Windows\System32\nlaapi.dll
0x000007fef9760000             0xc000                0x1 C:\Windows\System32\npmproxy.dll
0x000007fef6700000            0x5b000                0x1 C:\Windows\system32\upnphost.dll
0x000007fef9ae0000             0xf000                0x1 C:\Windows\system32\wbem\wbemprox.dll
0x000007fefa260000            0x86000                0x2 C:\Windows\system32\wbemcomn.dll
0x000007fef9900000            0x14000                0x1 C:\Windows\system32\wbem\wbemsvc.dll
0x000007fef9dd0000            0xe2000                0x1 C:\Windows\system32\wbem\fastprox.dll
0x000007fef9b50000            0x27000                0x1 C:\Windows\system32\NTDSAPI.dll
0x000007fefccc0000            0x1b000                0x2 C:\Windows\system32\GPAPI.dll
0x000007fefc830000            0xbb000                0x2 C:\Windows\system32\FirewallAPI.dll
0x000007fefce10000             0xa000                0x1 C:\Windows\system32\credssp.dll
0x000007fef64e0000           0x1d4000                0x1 C:\Windows\System32\msxml3.dll
0x000007fefb540000            0x35000                0x1 C:\Windows\system32\XmlLite.dll
0x000007fef7f80000             0xc000                0x1 C:\Windows\system32\LINKINFO.dll
0x000007fefd7b0000            0x57000                0x1 C:\Windows\system32\apphelp.dll
0x000007fef5ea0000           0x19c000                0x1 C:\Windows\system32\NetworkExplorer.dll
0x000007fefdbd0000            0x18000                0x1 C:\Windows\system32\MPR.dll
0x000007fefc990000           0x225000                0x1 C:\Windows\system32\VBoxMRXNP.dll
0x000007fefc950000             0xa000                0x1 C:\Windows\System32\drprov.dll
0x000007fefc920000            0x22000                0x1 C:\Windows\System32\ntlanman.dll
0x000007fefc900000            0x1c000                0x1 C:\Windows\System32\davclnt.dll
0x000007fefc8f0000             0xa000                0x1 C:\Windows\System32\DAVHLPR.dll
0x000007fefd3b0000            0x2f000                0x1 C:\Windows\system32\AUTHZ.dll
0x000007fefb8e0000             0xc000                0x1 C:\Windows\system32\dsrole.dll
0x000007fefdae0000            0x1d000                0x1 C:\Windows\system32\SAMLIB.dll
************************************************************************
SearchIndexer. pid:    480
Command line : C:\Windows\system32\SearchIndexer.exe /Embedding
Service Pack 1

Base                             Size          LoadCount Path
------------------ ------------------ ------------------ ----
0x00000000ff3e0000            0x94000             0xffff C:\Windows\system32\SearchIndexer.exe
0x0000000077c90000           0x1a9000             0xffff C:\Windows\SYSTEM32\ntdll.dll
0x0000000077a70000           0x11f000             0xffff C:\Windows\system32\kernel32.dll
0x000007fefdcb0000            0x6b000             0xffff C:\Windows\system32\KERNELBASE.dll
0x000007fefe390000            0xdb000             0xffff C:\Windows\system32\ADVAPI32.dll
0x000007fefe7b0000            0x9f000             0xffff C:\Windows\system32\msvcrt.dll
0x000007fefe720000            0x1f000             0xffff C:\Windows\SYSTEM32\sechost.dll
0x000007fefdfb0000           0x12d000             0xffff C:\Windows\system32\RPCRT4.dll
0x0000000077b90000            0xfa000             0xffff C:\Windows\system32\USER32.dll
0x000007fefe740000            0x67000             0xffff C:\Windows\system32\GDI32.dll
0x000007fefe710000             0xe000             0xffff C:\Windows\system32\LPK.dll
0x000007fefe850000            0xc9000             0xffff C:\Windows\system32\USP10.dll
0x000007fefe9a0000           0x203000             0xffff C:\Windows\system32\ole32.dll
0x000007feffcc0000            0xd7000             0xffff C:\Windows\system32\OLEAUT32.dll
0x000007fef7cb0000           0x238000             0xffff C:\Windows\system32\TQUERY.DLL
0x000007feffdf0000            0x71000             0xffff C:\Windows\system32\SHLWAPI.dll
0x000007fef79d0000           0x223000             0xffff C:\Windows\system32\MSSRCH.DLL
0x000007fef8980000           0x27a000             0xffff C:\Windows\system32\ESENT.dll
0x000007fefe0e0000            0x2e000             0xffff C:\Windows\system32\IMM32.dll
0x000007fefebc0000           0x109000             0xffff C:\Windows\system32\MSCTF.dll
0x0000000077e60000             0x7000                0x1 C:\Windows\system32\psapi.dll
0x000007fefef30000           0xd88000                0x7 C:\Windows\system32\SHELL32.dll
0x000007fefdab0000             0xf000                0x2 C:\Windows\system32\profapi.dll
0x000007fefd810000             0xf000                0x2 C:\Windows\system32\CRYPTBASE.dll
0x000007fefd4d0000             0xb000                0x1 C:\Windows\system32\secur32.dll
0x000007fefd780000            0x25000                0x3 C:\Windows\system32\SSPICLI.DLL
0x000007fefce10000             0xa000                0x1 C:\Windows\system32\credssp.dll
0x000007fefe650000            0x99000                0x1 C:\Windows\system32\CLBCatQ.DLL
0x000007fef64d0000             0x7000                0x1 C:\Windows\system32\Msidle.dll
0x000007fefd1e0000            0x17000                0x1 C:\Windows\system32\CRYPTSP.dll
0x000007fefcf10000            0x47000                0x1 C:\Windows\system32\rsaenh.dll
0x000007fefd8c0000            0x14000                0x1 C:\Windows\system32\RpcRtRemote.dll
0x000007fefbea0000           0x12c000                0x5 C:\Windows\system32\propsys.dll
0x000007fef7fc0000            0x31000                0x1 C:\Windows\system32\en-us\tQuery.dll.mui
0x000007fefc810000            0x11000                0x1 C:\Windows\system32\WTSAPI32.dll
0x000007fefd8e0000            0x3d000                0x1 C:\Windows\system32\WINSTA.dll
0x000007fefcc50000            0x2d000                0x1 C:\Windows\system32\ntmarta.dll
0x000007fefe110000            0x52000                0x1 C:\Windows\system32\WLDAP32.dll
0x000007fefa0a0000           0x1b0000                0x1 C:\Windows\system32\VSSAPI.DLL
0x000007fefb950000            0x19000                0x1 C:\Windows\system32\ATL.DLL
0x000007fefa080000            0x17000                0x2 C:\Windows\system32\VssTrace.DLL
0x000007fefdb30000            0x14000                0x1 C:\Windows\system32\samcli.dll
0x000007fefdae0000            0x1d000                0x1 C:\Windows\system32\SAMLIB.dll
0x000007fefdba0000             0xc000                0x1 C:\Windows\system32\netutils.dll
0x000007fefb650000            0x67000                0x1 C:\Windows\system32\es.dll
0x000007fefded0000            0x36000                0x5 C:\Windows\system32\CFGMGR32.dll
0x000007fefdac0000            0x1e000                0x1 C:\Windows\system32\USERENV.dll
0x000007fef9800000            0x1d000                0x1 C:\Windows\system32\mssprxy.dll
0x000007fefd820000            0x91000                0x1 C:\Windows\system32\SXS.DLL
0x000007fefd7b0000            0x57000             0xffff C:\Windows\system32\apphelp.dll
0x000007fef3480000           0x148000                0x3 C:\Windows\System32\NaturalLanguage6.dll
0x000007fefdd20000           0x167000                0x3 C:\Windows\system32\CRYPT32.dll
0x000007fefdc80000             0xf000                0x3 C:\Windows\system32\MSASN1.dll
0x000007fef2e80000           0x5ff000                0x1 C:\Windows\System32\NLSData0009.dll
0x0000000075620000           0x283000                0x1 C:\Windows\System32\NLSLexicons0009.dll
0x000007fefc160000           0x1f4000                0x2 C:\Windows\WinSxS\amd64_microsoft.windows.common-controls_6595b64144ccf1df_6.0.7601.17514_none_fa396087175ac9ac\comctl32.dll
0x000007fefe470000           0x1d7000                0x1 C:\Windows\system32\SETUPAPI.dll
0x000007fefdc90000            0x1a000                0x1 C:\Windows\system32\DEVOBJ.dll
0x000007fefb170000             0xf000                0x1 C:\Windows\system32\elscore.dll
0x000007fef1ca0000            0xa3000                0x1 C:\Windows\system32\ElsLad.dll
0x000007fef1b10000           0x18f000                0x1 C:\Windows\System32\NLSData0000.dll
************************************************************************
taskhost.exe pid:    296
Command line : "taskhost.exe"
Service Pack 1

Base                             Size          LoadCount Path
------------------ ------------------ ------------------ ----
0x00000000ff500000            0x14000             0xffff C:\Windows\system32\taskhost.exe
0x0000000077c90000           0x1a9000             0xffff C:\Windows\SYSTEM32\ntdll.dll
0x0000000077a70000           0x11f000             0xffff C:\Windows\system32\kernel32.dll
0x000007fefdcb0000            0x6b000             0xffff C:\Windows\system32\KERNELBASE.dll
0x000007fefe7b0000            0x9f000             0xffff C:\Windows\system32\msvcrt.dll
0x000007fefe9a0000           0x203000             0xffff C:\Windows\system32\ole32.dll
0x000007fefe740000            0x67000             0xffff C:\Windows\system32\GDI32.dll
0x0000000077b90000            0xfa000             0xffff C:\Windows\system32\USER32.dll
0x000007fefe710000             0xe000             0xffff C:\Windows\system32\LPK.dll
0x000007fefe850000            0xc9000             0xffff C:\Windows\system32\USP10.dll
0x000007fefdfb0000           0x12d000             0xffff C:\Windows\system32\RPCRT4.dll
0x000007feffcc0000            0xd7000             0xffff C:\Windows\system32\OLEAUT32.dll
0x000007fefe0e0000            0x2e000                0x4 C:\Windows\system32\IMM32.DLL
0x000007fefebc0000           0x109000                0x7 C:\Windows\system32\MSCTF.dll
0x000007fefd810000             0xf000                0x2 C:\Windows\system32\CRYPTBASE.dll
0x000007fefe720000            0x1f000               0x22 C:\Windows\SYSTEM32\sechost.dll
0x000007fefe390000            0xdb000                0x6 C:\Windows\system32\ADVAPI32.dll
0x000007fefbe40000            0x56000                0x2 C:\Windows\system32\uxtheme.dll
0x000007fefb5b0000            0x18000                0x1 C:\Windows\system32\dwmapi.dll
0x000007fefe650000            0x99000                0x1 C:\Windows\system32\CLBCatQ.DLL
0x000007fefb2c0000            0x18000                0x2 C:\Windows\System32\PlaySndSrv.dll
0x000007fefb140000             0xb000                0x1 C:\Windows\System32\HotStartUserAgent.dll
0x000007fefb130000             0xb000                0x2 C:\Windows\system32\MsCtfMonitor.dll
0x000007fefae00000            0x3d000                0x2 C:\Windows\system32\MSUTB.dll
0x000007fefd8e0000            0x3d000                0x2 C:\Windows\system32\WINSTA.dll
0x000007fefc810000            0x11000                0x2 C:\Windows\system32\WTSAPI32.dll
0x000007fefd920000             0xb000                0x1 C:\Windows\system32\slc.dll
0x000007fefb120000             0xe000                0x1 C:\Windows\system32\dimsjob.dll
0x000007feffdf0000            0x71000                0x1 C:\Windows\system32\SHLWAPI.dll
0x000007fefd8c0000            0x14000                0x1 C:\Windows\system32\RpcRtRemote.dll
0x000007fefb740000           0x127000                0x1 C:\Windows\system32\taskschd.dll
0x000007fefd780000            0x25000                0x1 C:\Windows\system32\SspiCli.dll
0x000007fef9780000            0x74000                0x1 C:\Windows\System32\netprofm.dll
0x000007fefebb0000             0x8000                0x1 C:\Windows\system32\NSI.dll
0x000007fefb8b0000            0x15000                0x1 C:\Windows\System32\nlaapi.dll
0x000007fefd1e0000            0x17000                0x1 C:\Windows\system32\CRYPTSP.dll
0x000007fefcf10000            0x47000                0x1 C:\Windows\system32\rsaenh.dll
0x000007fef9760000             0xc000                0x1 C:\Windows\System32\npmproxy.dll
0x000007fefb8e0000             0xc000                0x1 C:\Windows\system32\dsrole.dll
0x000007fefb700000            0x3b000                0x2 C:\Windows\system32\WINMM.dll
************************************************************************
dwm.exe pid:   1988
Command line : "C:\Windows\system32\Dwm.exe"
Service Pack 1

Base                             Size          LoadCount Path
------------------ ------------------ ------------------ ----
0x00000000ff390000            0x23000             0xffff C:\Windows\system32\Dwm.exe
0x0000000077c90000           0x1a9000             0xffff C:\Windows\SYSTEM32\ntdll.dll
0x0000000077a70000           0x11f000             0xffff C:\Windows\system32\kernel32.dll
0x000007fefdcb0000            0x6b000             0xffff C:\Windows\system32\KERNELBASE.dll
0x000007fefe740000            0x67000             0xffff C:\Windows\system32\GDI32.dll
0x0000000077b90000            0xfa000             0xffff C:\Windows\system32\USER32.dll
0x000007fefe710000             0xe000             0xffff C:\Windows\system32\LPK.dll
0x000007fefe850000            0xc9000             0xffff C:\Windows\system32\USP10.dll
0x000007fefe7b0000            0x9f000             0xffff C:\Windows\system32\msvcrt.dll
0x000007fefbe40000            0x56000             0xffff C:\Windows\system32\UxTheme.dll
0x000007fefe0e0000            0x2e000             0xffff C:\Windows\system32\IMM32.dll
0x000007fefebc0000           0x109000             0xffff C:\Windows\system32\MSCTF.dll
0x000007fefadd0000            0x27000             0xffff C:\Windows\system32\dwmredir.dll
0x000007fef8f80000           0x192000             0xffff C:\Windows\system32\dwmcore.dll
0x000007fefe390000            0xdb000             0xffff C:\Windows\system32\ADVAPI32.dll
0x000007fefe720000            0x1f000             0xffff C:\Windows\SYSTEM32\sechost.dll
0x000007fefdfb0000           0x12d000             0xffff C:\Windows\system32\RPCRT4.dll
0x000007fefafe0000           0x12a000             0xffff C:\Windows\system32\WindowsCodecs.dll
0x000007fefe9a0000           0x203000             0xffff C:\Windows\system32\ole32.dll
0x000007fefad90000            0x34000             0xffff C:\Windows\system32\d3d10_1.dll
0x000007fef98a0000            0x55000             0xffff C:\Windows\system32\d3d10_1core.dll
0x000007fef8c00000            0xa7000             0xffff C:\Windows\system32\dxgi.dll
0x000007fefcc80000             0xc000             0xffff C:\Windows\system32\VERSION.dll
0x000007fefb5b0000            0x18000             0xffff C:\Windows\system32\dwmapi.dll
0x0000000077e60000             0x7000             0xffff C:\Windows\system32\PSAPI.DLL
0x000007fefde90000            0x3a000                0x5 C:\Windows\system32\WINTRUST.dll
0x000007fefdd20000           0x167000                0x5 C:\Windows\system32\CRYPT32.dll
0x000007fefdc80000             0xf000                0xa C:\Windows\system32\MSASN1.dll
************************************************************************
explorer.exe pid:    604
Command line : C:\Windows\Explorer.EXE
Service Pack 1

Base                             Size          LoadCount Path
------------------ ------------------ ------------------ ----
0x00000000ff320000           0x2c0000             0xffff C:\Windows\Explorer.EXE
0x0000000077c90000           0x1a9000             0xffff C:\Windows\SYSTEM32\ntdll.dll
0x0000000077a70000           0x11f000             0xffff C:\Windows\system32\kernel32.dll
0x000007fefdcb0000            0x6b000             0xffff C:\Windows\system32\KERNELBASE.dll
0x000007fefe390000            0xdb000             0xffff C:\Windows\system32\ADVAPI32.dll
0x000007fefe7b0000            0x9f000             0xffff C:\Windows\system32\msvcrt.dll
0x000007fefe720000            0x1f000             0xffff C:\Windows\SYSTEM32\sechost.dll
0x000007fefdfb0000           0x12d000             0xffff C:\Windows\system32\RPCRT4.dll
0x000007fefe740000            0x67000             0xffff C:\Windows\system32\GDI32.dll
0x0000000077b90000            0xfa000             0xffff C:\Windows\system32\USER32.dll
0x000007fefe710000             0xe000             0xffff C:\Windows\system32\LPK.dll
0x000007fefe850000            0xc9000             0xffff C:\Windows\system32\USP10.dll
0x000007feffdf0000            0x71000             0xffff C:\Windows\system32\SHLWAPI.dll
0x000007fefef30000           0xd88000             0xffff C:\Windows\system32\SHELL32.dll
0x000007fefe9a0000           0x203000             0xffff C:\Windows\system32\ole32.dll
0x000007feffcc0000            0xd7000             0xffff C:\Windows\system32\OLEAUT32.dll
0x000007fef8db0000           0x1ca000             0xffff C:\Windows\system32\EXPLORERFRAME.dll
0x000007fefb900000            0x43000             0xffff C:\Windows\system32\DUser.dll
0x000007fefbb20000            0xf2000             0xffff C:\Windows\system32\DUI70.dll
0x000007fefe0e0000            0x2e000             0xffff C:\Windows\system32\IMM32.dll
0x000007fefebc0000           0x109000             0xffff C:\Windows\system32\MSCTF.dll
0x000007fefbe40000            0x56000             0xffff C:\Windows\system32\UxTheme.dll
0x000007fefc050000            0x2c000             0xffff C:\Windows\system32\POWRPROF.dll
0x000007fefe470000           0x1d7000             0xffff C:\Windows\system32\SETUPAPI.dll
0x000007fefded0000            0x36000             0xffff C:\Windows\system32\CFGMGR32.dll
0x000007fefdc90000            0x1a000             0xffff C:\Windows\system32\DEVOBJ.dll
0x000007fefb5b0000            0x18000             0xffff C:\Windows\system32\dwmapi.dll
0x000007fefd920000             0xb000             0xffff C:\Windows\system32\slc.dll
0x000007fefbc20000           0x215000             0xffff C:\Windows\WinSxS\amd64_microsoft.windows.gdiplus_6595b64144ccf1df_1.1.7601.17514_none_2b24536c71ed437a\gdiplus.dll
0x000007fefd4d0000             0xb000             0xffff C:\Windows\system32\Secur32.dll
0x000007fefd780000            0x25000             0xffff C:\Windows\system32\SSPICLI.DLL
0x000007fefbea0000           0x12c000             0xffff C:\Windows\system32\PROPSYS.dll
0x000007fefd8e0000            0x3d000                0x6 C:\Windows\system32\WINSTA.dll
0x000007fefd810000             0xf000                0x2 C:\Windows\system32\CRYPTBASE.dll
0x000007fefc160000           0x1f4000               0x3e C:\Windows\WinSxS\amd64_microsoft.windows.common-controls_6595b64144ccf1df_6.0.7601.17514_none_fa396087175ac9ac\comctl32.dll
0x000007fefafe0000           0x12a000                0x3 C:\Windows\system32\WindowsCodecs.dll
0x000007fefdab0000             0xf000                0x6 C:\Windows\system32\profapi.dll
0x000007fefd7b0000            0x57000             0xffff C:\Windows\system32\apphelp.dll
0x000007fefe650000            0x99000                0x1 C:\Windows\system32\CLBCatQ.DLL
0x000007fef9860000            0x35000                0x2 C:\Windows\system32\EhStorShell.dll
0x000007fef5e20000            0x7e000                0x2 C:\Windows\System32\cscui.dll
0x000007fefaf70000             0xc000                0x2 C:\Windows\System32\CSCDLL.dll
0x000007fef85a0000             0xf000                0x4 C:\Windows\system32\CSCAPI.dll
0x000007fef5da0000            0x80000                0x4 C:\Windows\system32\ntshrui.dll
0x000007fefdb70000            0x23000                0x2 C:\Windows\system32\srvcli.dll
0x000007fefaf60000             0x8000                0x1 C:\Windows\system32\IconCodecService.dll
0x000007fefd1e0000            0x17000                0x1 C:\Windows\system32\CRYPTSP.dll
0x000007fefcf10000            0x47000                0x1 C:\Windows\system32\rsaenh.dll
0x000007fefd8c0000            0x14000                0x1 C:\Windows\system32\RpcRtRemote.dll
0x000007fefb610000            0x3b000                0x3 C:\Windows\system32\SndVolSSO.DLL
0x000007fefb8d0000             0xb000                0x4 C:\Windows\system32\HID.DLL
0x000007fefc000000            0x4b000                0xc C:\Windows\System32\MMDevApi.dll
0x000007fef5d10000            0x83000                0x1 C:\Windows\system32\timedate.cpl
0x000007fefb950000            0x19000                0x1 C:\Windows\system32\ATL.DLL
0x000007fef5b70000            0xee000                0x1 C:\Windows\system32\actxprxy.dll
0x000007fefcc50000            0x2d000                0x1 C:\Windows\system32\ntmarta.dll
0x000007fefe110000            0x52000                0x1 C:\Windows\system32\WLDAP32.dll
0x000007fefaea0000            0x34000                0x4 C:\Windows\System32\shdocvw.dll
0x000007fefdac0000            0x1e000                0x4 C:\Windows\system32\USERENV.dll
0x000007fefbfd0000            0x24000                0x1 C:\Windows\System32\shacct.dll
0x000007fefdae0000            0x1d000                0x1 C:\Windows\system32\SAMLIB.dll
0x000007fef58c0000           0x2a3000                0x1 C:\Windows\System32\gameux.dll
0x000007fefb540000            0x35000                0x6 C:\Windows\System32\XmlLite.dll
0x000007fefdd20000           0x167000               0x10 C:\Windows\system32\CRYPT32.dll
0x000007fefdc80000             0xf000               0x10 C:\Windows\system32\MSASN1.dll
0x000007fef9340000            0x7c000                0x3 C:\Windows\System32\wer.dll
0x000007fef57f0000            0xc6000                0x2 C:\Windows\system32\MsftEdit.dll
0x000007fefae60000            0x3b000                0x1 C:\Windows\system32\msls31.dll
0x000007fef5770000            0x7f000                0x1 C:\Program Files\Common Files\microsoft shared\ink\tiptsf.dll
0x000007fefc630000           0x1da000                0x1 C:\Windows\system32\authui.dll
0x000007fefc360000           0x109000                0x1 C:\Windows\system32\CRYPTUI.dll
0x000007fefe170000           0x178000                0xe C:\Windows\system32\urlmon.dll
0x000007feffe70000           0x12a000                0xa C:\Windows\system32\WININET.dll
0x000007fefecd0000           0x259000               0x12 C:\Windows\system32\iertutil.dll
0x000007fef7f80000             0xc000                0x1 C:\Windows\system32\LINKINFO.dll
0x0000000077e60000             0x7000                0x3 C:\Windows\system32\PSAPI.DLL
0x000007fef5ea0000           0x19c000                0x1 C:\Windows\system32\NetworkExplorer.dll
0x000007fefb700000            0x3b000                0xd C:\Windows\system32\WINMM.dll
0x000007fefb6c0000            0x3b000                0x5 C:\Windows\system32\wdmaud.drv
0x00000000759a0000             0x6000                0x5 C:\Windows\system32\ksuser.dll
0x000007fefc130000             0x9000                0x5 C:\Windows\system32\AVRT.dll
0x000007fefb4f0000            0x4f000                0x2 C:\Windows\system32\AUDIOSES.DLL
0x000007fefb3c0000             0xa000                0x2 C:\Windows\system32\msacm32.drv
0x000007fefb360000            0x18000                0x2 C:\Windows\system32\MSACM32.dll
0x000007fefb340000             0x9000                0x1 C:\Windows\system32\midimap.dll
0x000007fefdba0000             0xc000                0x5 C:\Windows\system32\netutils.dll
0x000007fefabf0000            0x43000                0x5 C:\Windows\system32\stobject.dll
0x000007fefab30000            0xba000                0x5 C:\Windows\system32\BatMeter.dll
0x000007fefc810000            0x11000                0x2 C:\Windows\system32\WTSAPI32.dll
0x000007fefde90000            0x3a000                0x1 C:\Windows\system32\WINTRUST.dll
0x000007fefb650000            0x67000                0x1 C:\Windows\system32\es.dll
0x000007fefaac0000            0x69000                0x1 C:\Windows\system32\prnfldr.dll
0x000007fef87b0000            0x71000                0x2 C:\Windows\system32\WINSPOOL.DRV
0x000007fefaa40000            0x74000                0x1 C:\Windows\system32\dxp.dll
0x000007fefaa20000            0x16000                0x1 C:\Windows\system32\Syncreg.dll
0x000007fefad50000             0xb000                0x1 C:\Windows\ehome\ehSSO.dll
0x000007fef5250000           0x28b000                0x1 C:\Windows\System32\netshell.dll
0x000007fefd940000            0x27000                0x5 C:\Windows\System32\IPHLPAPI.DLL
0x000007fefebb0000             0x8000               0x1a C:\Windows\system32\NSI.dll
0x000007fefd930000             0xb000                0x5 C:\Windows\System32\WINNSI.DLL
0x000007fefb8b0000            0x15000                0x2 C:\Windows\System32\nlaapi.dll
0x000007fefacc0000            0x10000                0x2 C:\Windows\System32\AltTab.dll
0x000007fef5090000           0x1bd000                0x1 C:\Windows\System32\pnidui.dll
0x000007fefaa00000            0x1f000                0x2 C:\Windows\System32\QUtil.dll
0x000007fefd3f0000            0x6d000                0xc C:\Windows\System32\wevtapi.dll
0x000007fef9820000            0x20000                0x1 C:\Windows\system32\wpdshserviceobj.dll
0x000007fef8d70000            0x39000                0x1 C:\Windows\system32\PortableDeviceTypes.dll
0x000007fef4fc0000            0xc2000                0x2 C:\Windows\System32\Actioncenter.dll
0x000007fef93f0000            0xbd000                0x1 C:\Windows\system32\PortableDeviceApi.dll
0x000007fef7f20000            0x3f000                0x2 C:\Windows\System32\cscobj.dll
0x000007fef4f00000            0xb5000                0x1 C:\Windows\System32\bthprops.cpl
0x000007fefb740000           0x127000                0x1 C:\Windows\system32\taskschd.dll
0x000007fef4e20000            0xd7000                0x1 C:\Windows\system32\fxsst.dll
0x000007fef4d80000            0x9d000                0x1 C:\Windows\system32\FXSAPI.dll
0x00000000758b0000            0xe3000                0x1 C:\Windows\system32\FXSRESM.DLL
0x000007fef5cb0000            0x58000                0x1 C:\Windows\System32\srchadmin.dll
0x000007fef9800000            0x1d000                0x1 C:\Windows\system32\mssprxy.dll
0x000007fef4b50000           0x22b000                0x1 C:\Windows\System32\SyncCenter.dll
0x000007fef4ad0000            0x7f000                0x1 C:\Windows\system32\imapi2.dll
0x000007fef3f10000           0xbb7000                0x2 C:\Windows\System32\ieframe.dll
0x000007fef3eb0000            0x54000                0x3 C:\Windows\System32\OLEACC.dll
0x000007fefcc80000             0xc000                0x3 C:\Windows\system32\VERSION.dll
0x000007fef3e50000            0x55000                0x1 C:\Windows\System32\hgcpl.dll
0x000007fef6b00000            0x31000                0x1 C:\Windows\System32\provsvc.dll
0x000007feffda0000            0x4d000                0xc C:\Windows\system32\WS2_32.dll
0x000007fefb320000            0x11000                0x1 C:\Windows\system32\dhcpcsvc6.DLL
0x000007fefc610000            0x18000                0x1 C:\Windows\system32\dhcpcsvc.DLL
0x000007fefce10000             0xa000                0x1 C:\Windows\system32\credssp.dll
0x000007fef9760000             0xc000                0x1 C:\Windows\System32\npmproxy.dll
0x000007fefd820000            0x91000                0x1 C:\Windows\system32\SXS.DLL
0x000007fef3920000            0x20000                0x1 C:\Windows\system32\Wlanapi.dll
0x000007fef5ca0000             0x7000                0x1 C:\Windows\system32\wlanutil.dll
0x000007fef3790000            0x5e000                0x1 C:\Windows\system32\wwanapi.dll
0x000007fef3910000             0xd000                0x1 C:\Windows\system32\wwapi.dll
0x000007fef3740000            0x45000                0x1 C:\Windows\System32\QAgent.dll
0x000007fef9780000            0x74000                0x1 C:\Windows\System32\netprofm.dll
0x000007fefdb50000            0x15000                0x3 C:\Windows\system32\wkscli.dll
0x000007fef3b40000            0x21000                0x1 C:\Windows\System32\UIAnimation.dll
0x000007fef6b40000            0x73000                0x1 C:\Program Files\Internet Explorer\ieproxy.dll
0x000007fef3b70000            0x1f000                0x1 C:\Windows\system32\thumbcache.dll
0x000007fef3690000            0x7b000                0x2 C:\Windows\System32\StructuredQuery.dll
0x000007fefdbd0000            0x18000                0x2 C:\Windows\system32\MPR.dll
0x000007fefc990000           0x225000                0x1 C:\Windows\system32\VBoxMRXNP.dll
0x000007fefc950000             0xa000                0x1 C:\Windows\System32\drprov.dll
0x000007fefc920000            0x22000                0x1 C:\Windows\System32\ntlanman.dll
0x000007fefc900000            0x1c000                0x1 C:\Windows\System32\davclnt.dll
0x000007fefc8f0000             0xa000                0x1 C:\Windows\System32\DAVHLPR.dll
0x000007fefad60000            0x27000                0x1 C:\Windows\system32\EhStorAPI.dll
0x000007fefb8e0000             0xc000                0x1 C:\Windows\system32\dsrole.dll
0x000007fef29e0000            0xd7000                0x3 C:\Windows\System32\SearchFolder.dll
0x000007fef3480000           0x148000                0x1 C:\Windows\System32\NaturalLanguage6.dll
0x000007fef2e80000           0x5ff000                0x1 C:\Windows\System32\NLSData0009.dll
0x0000000075620000           0x283000                0x1 C:\Windows\System32\NLSLexicons0009.dll
0x000007fef3660000            0x28000                0x1 C:\Windows\System32\wscinterop.dll
0x000007fef7f60000            0x13000                0x4 C:\Windows\System32\WSCAPI.dll
0x000007fef28c0000           0x11f000                0x2 C:\Windows\System32\wscui.cpl
0x000007fef2780000           0x13c000                0x1 C:\Windows\System32\werconcpl.dll
0x000007fef2730000            0x4c000                0x1 C:\Windows\System32\framedynos.dll
0x000007fefb300000            0x19000                0x1 C:\Windows\System32\wercplsupport.dll
0x000007fef9b80000           0x1f2000                0x1 C:\Windows\System32\msxml6.dll
0x000007fef3b30000             0xb000                0x1 C:\Windows\System32\hcproviders.dll
0x000007fef7cb0000           0x238000                0x1 C:\Windows\system32\tquery.dll
0x000007fefd000000            0x5b000                0x1 C:\Windows\system32\dnsapi.DLL
0x000007fef3c60000            0x62000                0x1 C:\Windows\system32\RASAPI32.dll
0x000007fef8d40000            0x1c000                0x3 C:\Windows\system32\rasman.dll
0x000007fefa9e0000            0x11000                0x2 C:\Windows\system32\rtutils.dll
0x000007fef3940000             0x9000                0x1 C:\Windows\system32\sensapi.dll
0x000007fefcce0000            0x12000                0x1 C:\Windows\system32\DEVRTL.dll
************************************************************************
VBoxTray.exe pid:   1844
Command line : "C:\Windows\System32\VBoxTray.exe" 
Service Pack 1

Base                             Size          LoadCount Path
------------------ ------------------ ------------------ ----
0x000000013f2a0000           0x285000             0xffff C:\Windows\System32\VBoxTray.exe
0x0000000077c90000           0x1a9000             0xffff C:\Windows\SYSTEM32\ntdll.dll
0x0000000077a70000           0x11f000             0xffff C:\Windows\system32\kernel32.dll
0x000007fefdcb0000            0x6b000             0xffff C:\Windows\system32\KERNELBASE.dll
0x0000000077b90000            0xfa000             0xffff C:\Windows\system32\USER32.dll
0x000007fefe740000            0x67000             0xffff C:\Windows\system32\GDI32.dll
0x000007fefe710000             0xe000             0xffff C:\Windows\system32\LPK.dll
0x000007fefe850000            0xc9000             0xffff C:\Windows\system32\USP10.dll
0x000007fefe7b0000            0x9f000             0xffff C:\Windows\system32\msvcrt.dll
0x000007fefe390000            0xdb000             0xffff C:\Windows\system32\ADVAPI32.dll
0x000007fefe720000            0x1f000             0xffff C:\Windows\SYSTEM32\sechost.dll
0x000007fefdfb0000           0x12d000             0xffff C:\Windows\system32\RPCRT4.dll
0x000007fefef30000           0xd88000             0xffff C:\Windows\system32\SHELL32.dll
0x000007feffdf0000            0x71000             0xffff C:\Windows\system32\SHLWAPI.dll
0x000007fefe9a0000           0x203000             0xffff C:\Windows\system32\ole32.dll
0x000007fefe0e0000            0x2e000                0x2 C:\Windows\system32\IMM32.DLL
0x000007fefebc0000           0x109000                0x1 C:\Windows\system32\MSCTF.dll
0x000007feffda0000            0x4d000                0x1 C:\Windows\system32\ws2_32.dll
0x000007fefebb0000             0x8000                0x1 C:\Windows\system32\NSI.dll
0x000007fefbe40000            0x56000                0x3 C:\Windows\system32\uxtheme.dll
0x000007fefc810000            0x11000                0x1 C:\Windows\system32\WTSAPI32.DLL
0x000007fefd8e0000            0x3d000                0x2 C:\Windows\System32\WINSTA.dll
0x000007fefae40000            0x11000                0x2 C:\Windows\System32\VBoxHook.dll
0x000007fefd810000             0xf000                0x2 C:\Windows\System32\CRYPTBASE.dll
0x000007fefd780000            0x25000                0x1 C:\Windows\System32\SspiCli.dll
0x000007fefd1e0000            0x17000                0x1 C:\Windows\System32\CRYPTSP.dll
0x000007fefcf10000            0x47000                0x1 C:\Windows\system32\rsaenh.dll
0x000007fefd8c0000            0x14000                0x1 C:\Windows\System32\RpcRtRemote.dll
************************************************************************
audiodg.exe pid:   2064
Command line : C:\Windows\system32\AUDIODG.EXE 0x20c
Service Pack 1

Base                             Size          LoadCount Path
------------------ ------------------ ------------------ ----
0x00000000fff60000            0x24000             0xffff C:\Windows\system32\AUDIODG.EXE
0x0000000077c90000           0x1a9000             0xffff C:\Windows\SYSTEM32\ntdll.dll
0x0000000077a70000           0x11f000             0xffff C:\Windows\System32\kernel32.dll
0x000007fefdcb0000            0x6b000             0xffff C:\Windows\System32\KERNELBASE.dll
0x000007fefe7b0000            0x9f000             0xffff C:\Windows\System32\msvcrt.dll
0x000007fefdfb0000           0x12d000             0xffff C:\Windows\System32\RPCRT4.dll
0x000007fefc000000            0x4b000             0xffff C:\Windows\System32\MMDevAPI.DLL
0x000007fefe720000            0x1f000             0xffff C:\Windows\SYSTEM32\sechost.dll
0x0000000077b90000            0xfa000             0xffff C:\Windows\System32\USER32.dll
0x000007fefe740000            0x67000             0xffff C:\Windows\System32\GDI32.dll
0x000007fefe710000             0xe000             0xffff C:\Windows\System32\LPK.dll
0x000007fefe850000            0xc9000             0xffff C:\Windows\System32\USP10.dll
0x000007fefbea0000           0x12c000             0xffff C:\Windows\System32\PROPSYS.dll
0x000007fefe9a0000           0x203000             0xffff C:\Windows\System32\ole32.dll
0x000007feffcc0000            0xd7000             0xffff C:\Windows\System32\OLEAUT32.dll
0x000007fefe0e0000            0x2e000                0x2 C:\Windows\system32\IMM32.DLL
0x000007fefebc0000           0x109000                0x1 C:\Windows\system32\MSCTF.dll
0x000007fefe390000            0xdb000             0xffff C:\Windows\system32\ADVAPI32.dll
0x000007fefd810000             0xf000                0x2 C:\Windows\system32\CRYPTBASE.dll
0x000007fefd8c0000            0x14000                0x1 C:\Windows\system32\RpcRtRemote.dll
0x000007fefcc50000            0x2d000                0x1 C:\Windows\system32\ntmarta.dll
0x000007fefe110000            0x52000                0x1 C:\Windows\system32\WLDAP32.dll
0x000007fefe650000            0x99000                0x1 C:\Windows\system32\CLBCatQ.DLL
0x000007fefd1e0000            0x17000                0x1 C:\Windows\system32\CRYPTSP.dll
0x000007fefcf10000            0x47000                0x1 C:\Windows\system32\rsaenh.dll
0x000007fefb4f0000            0x4f000                0x1 C:\Windows\System32\audioses.dll
0x000007fef56f0000            0x71000                0x3 C:\Windows\System32\audioeng.dll
0x000007fefc130000             0x9000             0xffff C:\Windows\System32\AVRT.dll
0x000007fefe470000           0x1d7000                0x2 C:\Windows\system32\SETUPAPI.dll
0x000007fefded0000            0x36000                0x6 C:\Windows\system32\CFGMGR32.dll
0x000007fefdc90000            0x1a000                0x2 C:\Windows\system32\DEVOBJ.dll
0x000007fef5670000            0x80000                0x1 C:\Windows\System32\audiokse.dll
0x000007fefdd20000           0x167000                0x2 C:\Windows\System32\CRYPT32.dll
0x000007fefdc80000             0xf000                0x2 C:\Windows\System32\MSASN1.dll
0x000007fefde90000            0x3a000                0x1 C:\Windows\System32\WINTRUST.dll
0x00000000759a0000             0x6000                0x1 C:\Windows\System32\ksuser.dll
0x000007feffdf0000            0x71000             0xffff C:\Windows\system32\SHLWAPI.dll
0x000007fef54e0000           0x188000                0x1 C:\Windows\system32\WMALFXGFXDSP.dll
0x000007fefacd0000            0x6c000             0xffff C:\Windows\system32\mfplat.DLL
0x000007feffda0000            0x4d000             0xffff C:\Windows\system32\WS2_32.dll
0x000007fefebb0000             0x8000             0xffff C:\Windows\system32\NSI.dll
************************************************************************
svchost.exe pid:   2368
Command line : C:\Windows\System32\svchost.exe -k LocalServicePeerNet
Service Pack 1

Base                             Size          LoadCount Path
------------------ ------------------ ------------------ ----
0x00000000ff9a0000             0xb000             0xffff C:\Windows\System32\svchost.exe
0x0000000077c90000           0x1a9000             0xffff C:\Windows\SYSTEM32\ntdll.dll
0x0000000077a70000           0x11f000             0xffff C:\Windows\system32\kernel32.dll
0x000007fefdcb0000            0x6b000             0xffff C:\Windows\system32\KERNELBASE.dll
0x000007fefe7b0000            0x9f000             0xffff C:\Windows\system32\msvcrt.dll
0x000007fefe720000            0x1f000             0xffff C:\Windows\SYSTEM32\sechost.dll
0x000007fefdfb0000           0x12d000             0xffff C:\Windows\system32\RPCRT4.dll
0x000007fef3990000            0x53000                0x2 c:\windows\system32\pnrpsvc.dll
0x000007fefdac0000            0x1e000                0x4 C:\Windows\System32\USERENV.dll
0x000007fefdab0000             0xf000                0x5 C:\Windows\System32\profapi.dll
0x000007fefccc0000            0x1b000                0x6 C:\Windows\System32\GPAPI.dll
0x000007fefd810000             0xf000                0x6 C:\Windows\System32\CRYPTBASE.dll
0x000007fefd4d0000             0xb000                0x3 C:\Windows\System32\secur32.dll
0x000007fefd780000            0x25000                0x7 C:\Windows\System32\SSPICLI.DLL
0x000007fefce10000             0xa000                0x1 C:\Windows\System32\credssp.dll
0x000007fefd8c0000            0x14000                0x1 C:\Windows\System32\RpcRtRemote.dll
0x000007feffda0000            0x4d000                0xa C:\Windows\system32\WS2_32.dll
0x000007fefebb0000             0x8000               0x15 C:\Windows\system32\NSI.dll
0x000007fefd180000            0x55000                0x2 C:\Windows\system32\mswsock.dll
0x0000000077b90000            0xfa000               0x57 C:\Windows\system32\user32.dll
0x000007fefe740000            0x67000               0x52 C:\Windows\system32\GDI32.dll
0x000007fefe710000             0xe000               0x14 C:\Windows\system32\LPK.dll
0x000007fefe850000            0xc9000               0x14 C:\Windows\system32\USP10.dll
0x000007fefe0e0000            0x2e000                0x2 C:\Windows\system32\IMM32.DLL
0x000007fefebc0000           0x109000                0x1 C:\Windows\system32\MSCTF.dll
0x000007fefd170000             0x7000                0x1 C:\Windows\System32\wship6.dll
0x000007fefd940000            0x27000                0x5 C:\Windows\System32\IPHLPAPI.DLL
0x000007fefd930000             0xb000                0x5 C:\Windows\System32\WINNSI.DLL
0x000007fefb320000            0x11000                0x1 C:\Windows\System32\dhcpcsvc6.DLL
0x000007fefc610000            0x18000                0x1 C:\Windows\System32\dhcpcsvc.DLL
0x000007fef9ec0000            0x42000                0x1 C:\Windows\System32\sqmapi.dll
0x000007fefe390000            0xdb000                0xa C:\Windows\system32\ADVAPI32.dll
0x000007fefe9a0000           0x203000                0xa C:\Windows\system32\ole32.dll
0x000007fefa020000            0x11000                0x1 C:\Windows\System32\SSDPAPI.DLL
0x000007fefef30000           0xd88000                0x3 C:\Windows\system32\SHELL32.dll
0x000007feffdf0000            0x71000                0x4 C:\Windows\system32\SHLWAPI.dll
0x000007fefdd20000           0x167000                0x4 C:\Windows\system32\CRYPT32.dll
0x000007fefdc80000             0xf000                0x5 C:\Windows\system32\MSASN1.dll
0x000007fefd1e0000            0x17000                0x5 C:\Windows\System32\CRYPTSP.dll
0x000007fefcf10000            0x47000                0x1 C:\Windows\system32\rsaenh.dll
0x000007fefd360000            0x4e000                0x1 C:\Windows\System32\ncrypt.dll
0x000007fefd330000            0x22000                0x1 C:\Windows\System32\bcrypt.dll
0x000007fef37f0000            0x6f000                0x2 c:\windows\system32\p2psvc.dll
0x000007fef35d0000            0x68000                0x2 c:\windows\system32\P2PGRAPH.dll
0x000007fef8980000           0x27a000                0x2 c:\windows\system32\ESENT.dll
0x000007fefd920000             0xb000                0x4 c:\windows\system32\slc.dll
0x000007fefb540000            0x35000                0x2 c:\windows\system32\XmlLite.dll
0x0000000077e60000             0x7000                0x1 C:\Windows\system32\psapi.dll
0x000007feffcc0000            0xd7000                0x3 C:\Windows\system32\OLEAUT32.dll
0x000007fefd3b0000            0x2f000                0x1 C:\Windows\System32\AUTHZ.dll
0x000007fefa2f0000            0x19000                0x2 C:\Windows\system32\pnrpnsp.dll
0x000007fef9770000             0x8000                0x1 C:\Windows\System32\rasadhlp.dll
0x000007fefcc50000            0x2d000                0x2 C:\Windows\system32\ntmarta.dll
0x000007fefe110000            0x52000                0x2 C:\Windows\system32\WLDAP32.dll
0x000007fefcfa0000            0x57000                0x1 C:\Windows\system32\schannel.DLL
0x000007fef2e30000            0x11000                0x1 C:\Windows\System32\drttransport.dll
0x000007fef2de0000            0x4b000                0x1 C:\Windows\System32\drt.dll
0x000007fefce20000             0xd000                0x1 C:\Windows\System32\pcwum.dll
0x000007fefe650000            0x99000                0x1 C:\Windows\system32\CLBCatQ.DLL
************************************************************************
cmd.exe pid:   1984
Command line : "C:\Windows\system32\cmd.exe" 
Service Pack 1

Base                             Size          LoadCount Path
------------------ ------------------ ------------------ ----
0x000000004a9d0000            0x59000             0xffff C:\Windows\system32\cmd.exe
0x0000000077c90000           0x1a9000             0xffff C:\Windows\SYSTEM32\ntdll.dll
0x0000000077a70000           0x11f000             0xffff C:\Windows\system32\kernel32.dll
0x000007fefdcb0000            0x6b000             0xffff C:\Windows\system32\KERNELBASE.dll
0x000007fefe7b0000            0x9f000             0xffff C:\Windows\system32\msvcrt.dll
0x000007fef3b20000             0x8000             0xffff C:\Windows\system32\WINBRAND.dll
0x0000000077b90000            0xfa000             0xffff C:\Windows\system32\USER32.dll
0x000007fefe740000            0x67000             0xffff C:\Windows\system32\GDI32.dll
0x000007fefe710000             0xe000             0xffff C:\Windows\system32\LPK.dll
0x000007fefe850000            0xc9000             0xffff C:\Windows\system32\USP10.dll
0x000007fefe0e0000            0x2e000                0x2 C:\Windows\system32\IMM32.DLL
0x000007fefebc0000           0x109000                0x1 C:\Windows\system32\MSCTF.dll
0x000007fefe390000            0xdb000                0x1 C:\Windows\system32\ADVAPI32.dll
0x000007fefe720000            0x1f000                0x4 C:\Windows\SYSTEM32\sechost.dll
0x000007fefdfb0000           0x12d000                0x2 C:\Windows\system32\RPCRT4.dll
************************************************************************
conhost.exe pid:   2692
Command line : \??\C:\Windows\system32\conhost.exe
Service Pack 1

Base                             Size          LoadCount Path
------------------ ------------------ ------------------ ----
0x00000000ff710000            0x57000             0xffff C:\Windows\system32\conhost.exe
0x0000000077c90000           0x1a9000             0xffff C:\Windows\SYSTEM32\ntdll.dll
0x0000000077a70000           0x11f000             0xffff C:\Windows\system32\kernel32.dll
0x000007fefdcb0000            0x6b000             0xffff C:\Windows\system32\KERNELBASE.dll
0x000007fefe740000            0x67000             0xffff C:\Windows\system32\GDI32.dll
0x0000000077b90000            0xfa000             0xffff C:\Windows\system32\USER32.dll
0x000007fefe710000             0xe000             0xffff C:\Windows\system32\LPK.dll
0x000007fefe850000            0xc9000             0xffff C:\Windows\system32\USP10.dll
0x000007fefe7b0000            0x9f000             0xffff C:\Windows\system32\msvcrt.dll
0x000007fefe0e0000            0x2e000             0xffff C:\Windows\system32\IMM32.dll
0x000007fefebc0000           0x109000             0xffff C:\Windows\system32\MSCTF.dll
0x000007fefe9a0000           0x203000             0xffff C:\Windows\system32\ole32.dll
0x000007fefdfb0000           0x12d000             0xffff C:\Windows\system32\RPCRT4.dll
0x000007feffcc0000            0xd7000             0xffff C:\Windows\system32\OLEAUT32.dll
0x000007fefbe40000            0x56000                0x3 C:\Windows\system32\uxtheme.dll
0x000007fefb5b0000            0x18000                0x1 C:\Windows\system32\dwmapi.dll
0x000007fefe390000            0xdb000                0x1 C:\Windows\system32\ADVAPI32.dll
0x000007fefe720000            0x1f000                0x4 C:\Windows\SYSTEM32\sechost.dll
0x000007fefc160000           0x1f4000                0x1 C:\Windows\WinSxS\amd64_microsoft.windows.common-controls_6595b64144ccf1df_6.0.7601.17514_none_fa396087175ac9ac\comctl32.DLL
0x000007feffdf0000            0x71000                0x1 C:\Windows\system32\SHLWAPI.dll
0x000007fefd810000             0xf000                0x1 C:\Windows\system32\CRYPTBASE.dll
************************************************************************
mspaint.exe pid:   2424
Command line : "C:\Windows\system32\mspaint.exe" 
Service Pack 1

Base                             Size          LoadCount Path
------------------ ------------------ ------------------ ----
0x00000000ff350000           0x661000             0xffff C:\Windows\system32\mspaint.exe
0x0000000077c90000           0x1a9000             0xffff C:\Windows\SYSTEM32\ntdll.dll
0x0000000077a70000           0x11f000             0xffff C:\Windows\system32\kernel32.dll
0x000007fefdcb0000            0x6b000             0xffff C:\Windows\system32\KERNELBASE.dll
0x000007fefe390000            0xdb000             0xffff C:\Windows\system32\ADVAPI32.dll
0x000007fefe7b0000            0x9f000             0xffff C:\Windows\system32\msvcrt.dll
0x000007fefe720000            0x1f000             0xffff C:\Windows\SYSTEM32\sechost.dll
0x000007fefdfb0000           0x12d000             0xffff C:\Windows\system32\RPCRT4.dll
0x000007fefe740000            0x67000             0xffff C:\Windows\system32\GDI32.dll
0x0000000077b90000            0xfa000             0xffff C:\Windows\system32\USER32.dll
0x000007fefe710000             0xe000             0xffff C:\Windows\system32\LPK.dll
0x000007fefe850000            0xc9000             0xffff C:\Windows\system32\USP10.dll
0x000007fef25e0000           0x150000             0xffff C:\Windows\system32\MFC42u.dll
0x000007fefe9a0000           0x203000             0xffff C:\Windows\system32\ole32.dll
0x000007feffcc0000            0xd7000             0xffff C:\Windows\system32\OLEAUT32.dll
0x000007fef2520000            0xb1000             0xffff C:\Windows\system32\ODBC32.dll
0x000007fefe2f0000            0x97000             0xffff C:\Windows\system32\COMDLG32.dll
0x000007feffdf0000            0x71000             0xffff C:\Windows\system32\SHLWAPI.dll
0x000007fefc160000           0x1f4000             0xffff C:\Windows\WinSxS\amd64_microsoft.windows.common-controls_6595b64144ccf1df_6.0.7601.17514_none_fa396087175ac9ac\COMCTL32.dll
0x000007fefef30000           0xd88000             0xffff C:\Windows\system32\SHELL32.dll
0x000007fefbea0000           0x12c000             0xffff C:\Windows\system32\PROPSYS.dll
0x000007fefb700000            0x3b000             0xffff C:\Windows\system32\WINMM.dll
0x000007fefcc80000             0xc000             0xffff C:\Windows\system32\VERSION.dll
0x000007fefe0e0000            0x2e000                0x6 C:\Windows\system32\IMM32.DLL
0x000007fefebc0000           0x109000                0x3 C:\Windows\system32\MSCTF.dll
0x00000000755e0000            0x38000                0x1 C:\Windows\system32\odbcint.dll
0x000007fefbc20000           0x215000                0x4 C:\Windows\WinSxS\amd64_microsoft.windows.gdiplus_6595b64144ccf1df_1.1.7601.17514_none_2b24536c71ed437a\gdiplus.dll
0x000007fefbe40000            0x56000                0x4 C:\Windows\system32\uxtheme.dll
0x000007fef57f0000            0xc6000                0x1 C:\Windows\system32\MSFTEDIT.DLL
0x000007fefd810000             0xf000                0x2 C:\Windows\system32\CRYPTBASE.dll
0x000007fefe650000            0x99000                0x1 C:\Windows\system32\CLBCatQ.DLL
0x000007fef2160000           0x3b2000                0x2 C:\Windows\system32\UIRibbon.dll
0x000007fefd1e0000            0x17000                0x1 C:\Windows\system32\CRYPTSP.dll
0x000007fefcf10000            0x47000                0x1 C:\Windows\system32\rsaenh.dll
0x000007fefd8c0000            0x14000                0x1 C:\Windows\system32\RpcRtRemote.dll
0x000007fef2070000            0x4c000                0x2 C:\Windows\System32\sti.dll
0x000007fef3650000             0x8000                0x1 C:\Windows\system32\wiatrace.dll
0x000007fefb5b0000            0x18000                0x2 C:\Windows\system32\dwmapi.dll
0x00000000754c0000           0x11e000                0x1 C:\Windows\system32\UIRibbonRes.dll
0x000007fef9b80000           0x1f2000                0x1 C:\Windows\System32\msxml6.dll
0x000007fef3eb0000            0x54000                0x1 C:\Windows\system32\oleacc.dll
************************************************************************
svchost.exe pid:   2660
Command line : C:\Windows\system32\svchost.exe -k imgsvc
Service Pack 1

Base                             Size          LoadCount Path
------------------ ------------------ ------------------ ----
0x00000000ff9a0000             0xb000             0xffff C:\Windows\system32\svchost.exe
0x0000000077c90000           0x1a9000             0xffff C:\Windows\SYSTEM32\ntdll.dll
0x0000000077a70000           0x11f000             0xffff C:\Windows\system32\kernel32.dll
0x000007fefdcb0000            0x6b000             0xffff C:\Windows\system32\KERNELBASE.dll
0x000007fefe7b0000            0x9f000             0xffff C:\Windows\system32\msvcrt.dll
0x000007fefe720000            0x1f000             0xffff C:\Windows\SYSTEM32\sechost.dll
0x000007fefdfb0000           0x12d000             0xffff C:\Windows\system32\RPCRT4.dll
0x000007fef20c0000            0x92000                0x2 c:\windows\system32\wiaservc.dll
0x000007fefe390000            0xdb000                0x8 C:\Windows\system32\ADVAPI32.dll
0x0000000077b90000            0xfa000               0x2d C:\Windows\system32\USER32.dll
0x000007fefe740000            0x67000               0x2b C:\Windows\system32\GDI32.dll
0x000007fefe710000             0xe000                0x9 C:\Windows\system32\LPK.dll
0x000007fefe850000            0xc9000                0x9 C:\Windows\system32\USP10.dll
0x000007feffcc0000            0xd7000                0x4 C:\Windows\system32\OLEAUT32.dll
0x000007fefe9a0000           0x203000                0x7 C:\Windows\system32\ole32.dll
0x000007fefcc80000             0xc000                0x2 c:\windows\system32\VERSION.dll
0x000007fefe0e0000            0x2e000                0x2 C:\Windows\system32\IMM32.DLL
0x000007fefebc0000           0x109000                0x1 C:\Windows\system32\MSCTF.dll
0x000007fef3650000             0x8000                0x2 C:\Windows\system32\wiatrace.dll
0x000007fefd810000             0xf000                0x2 C:\Windows\system32\CRYPTBASE.dll
0x000007fefd8c0000            0x14000                0x1 C:\Windows\system32\RpcRtRemote.dll
0x000007fefd4d0000             0xb000                0x1 C:\Windows\system32\secur32.dll
0x000007fefd780000            0x25000                0x2 C:\Windows\system32\SSPICLI.DLL
0x000007fefce10000             0xa000                0x1 C:\Windows\system32\credssp.dll
0x000007fefd110000            0x51000                0x1 C:\Windows\system32\msv1_0.DLL
0x000007fefd4e0000            0x14000                0x1 C:\Windows\system32\cryptdll.dll
0x000007fefded0000            0x36000                0x3 C:\Windows\system32\CFGMGR32.dll
0x000007fefe650000            0x99000                0x1 C:\Windows\system32\CLBCatQ.DLL
0x000007fefd1e0000            0x17000                0x1 C:\Windows\system32\CRYPTSP.dll
0x000007fefcf10000            0x47000                0x1 C:\Windows\system32\rsaenh.dll
0x000007fefe470000           0x1d7000                0x1 C:\Windows\system32\SETUPAPI.dll
0x000007fefdc90000            0x1a000                0x1 C:\Windows\system32\DEVOBJ.dll
0x000007fef2070000            0x4c000                0x2 C:\Windows\System32\sti.dll
0x000007fefc160000           0x1f4000                0x1 C:\Windows\WinSxS\amd64_microsoft.windows.common-controls_6595b64144ccf1df_6.0.7601.17514_none_fa396087175ac9ac\comctl32.dll
0x000007feffdf0000            0x71000                0x1 C:\Windows\system32\SHLWAPI.dll
0x000007fefde90000            0x3a000                0x1 C:\Windows\system32\WINTRUST.dll
0x000007fefdd20000           0x167000                0x1 C:\Windows\system32\CRYPT32.dll
0x000007fefdc80000             0xf000                0x2 C:\Windows\system32\MSASN1.dll
************************************************************************
csrss.exe pid:   2760
Command line : %SystemRoot%\system32\csrss.exe ObjectDirectory=\Windows SharedSection=1024,20480,768 Windows=On SubSystemType=Windows ServerDll=basesrv,1 ServerDll=winsrv:UserServerDllInitialization,3 ServerDll=winsrv:ConServerDllInitialization,2 ServerDll=sxssrv,4 ProfileControl=Off MaxRequestThreads=16
Service Pack 1

Base                             Size          LoadCount Path
------------------ ------------------ ------------------ ----
0x000000004a620000             0x6000             0xffff C:\Windows\system32\csrss.exe
0x0000000077c90000           0x1a9000             0xffff C:\Windows\SYSTEM32\ntdll.dll
0x000007fefdc60000            0x13000             0xffff C:\Windows\system32\CSRSRV.dll
0x000007fefdc40000            0x11000                0x4 C:\Windows\system32\basesrv.DLL
0x000007fefdc00000            0x38000                0x2 C:\Windows\system32\winsrv.DLL
0x0000000077b90000            0xfa000                0xb C:\Windows\system32\USER32.dll
0x000007fefe740000            0x67000                0xc C:\Windows\system32\GDI32.dll
0x0000000077a70000           0x11f000               0x45 C:\Windows\SYSTEM32\kernel32.dll
0x000007fefdcb0000            0x6b000               0xdb C:\Windows\system32\KERNELBASE.dll
0x000007fefe710000             0xe000                0x3 C:\Windows\system32\LPK.dll
0x000007fefe850000            0xc9000                0x3 C:\Windows\system32\USP10.dll
0x000007fefe7b0000            0x9f000                0x3 C:\Windows\system32\msvcrt.dll
0x000007fefdbf0000             0xc000                0x1 C:\Windows\system32\sxssrv.DLL
0x000007fefd820000            0x91000                0x1 C:\Windows\system32\sxs.dll
0x000007fefdfb0000           0x12d000                0x1 C:\Windows\system32\RPCRT4.dll
0x000007fefd810000             0xf000                0x1 C:\Windows\system32\CRYPTBASE.dll
************************************************************************
winlogon.exe pid:   2808
Command line : winlogon.exe
Service Pack 1

Base                             Size          LoadCount Path
------------------ ------------------ ------------------ ----
0x00000000ff9c0000            0x62000             0xffff C:\Windows\system32\winlogon.exe
0x0000000077c90000           0x1a9000             0xffff C:\Windows\SYSTEM32\ntdll.dll
0x0000000077a70000           0x11f000             0xffff C:\Windows\system32\kernel32.dll
0x000007fefdcb0000            0x6b000             0xffff C:\Windows\system32\KERNELBASE.dll
0x0000000077b90000            0xfa000             0xffff C:\Windows\system32\USER32.dll
0x000007fefe740000            0x67000             0xffff C:\Windows\system32\GDI32.dll
0x000007fefe710000             0xe000             0xffff C:\Windows\system32\LPK.dll
0x000007fefe850000            0xc9000             0xffff C:\Windows\system32\USP10.dll
0x000007fefe7b0000            0x9f000             0xffff C:\Windows\system32\msvcrt.dll
0x000007fefd8e0000            0x3d000             0xffff C:\Windows\system32\WINSTA.dll
0x000007fefdfb0000           0x12d000             0xffff C:\Windows\system32\RPCRT4.dll
0x000007fefe0e0000            0x2e000                0x2 C:\Windows\system32\IMM32.DLL
0x000007fefebc0000           0x109000                0x1 C:\Windows\system32\MSCTF.dll
0x000007fefdab0000             0xf000                0x1 C:\Windows\system32\profapi.dll
0x000007fefe720000            0x1f000               0x1b C:\Windows\SYSTEM32\sechost.dll
0x000007fefd8c0000            0x14000                0x1 C:\Windows\system32\RpcRtRemote.dll
0x000007fefe390000            0xdb000                0x5 C:\Windows\system32\ADVAPI32.dll
0x000007fefd7b0000            0x57000             0xffff C:\Windows\system32\apphelp.dll
0x000007fefa920000             0xa000                0x1 C:\Windows\system32\UXINIT.dll
0x000007fefbe40000            0x56000                0x3 C:\Windows\system32\UxTheme.dll
0x000007fefd1e0000            0x17000                0x1 C:\Windows\system32\CRYPTSP.dll
0x000007fefcf10000            0x47000                0x1 C:\Windows\system32\rsaenh.dll
0x000007fefd810000             0xf000                0x1 C:\Windows\system32\CRYPTBASE.dll
0x000007fefafe0000           0x12a000                0x1 C:\Windows\system32\WindowsCodecs.dll
0x000007fefe9a0000           0x203000                0x1 C:\Windows\system32\ole32.dll
0x000007fefdb50000            0x15000                0x1 C:\Windows\system32\wkscli.dll
0x000007fefdba0000             0xc000                0x1 C:\Windows\system32\netutils.dll
0x000007fefd780000            0x25000                0x1 C:\Windows\system32\SspiCli.dll
0x000007fefd920000             0xb000                0x1 C:\Windows\system32\slc.dll
0x000007fefdbd0000            0x18000                0x1 C:\Windows\system32\MPR.dll
************************************************************************
taskhost.exe pid:   2908
Command line : "taskhost.exe"
Service Pack 1

Base                             Size          LoadCount Path
------------------ ------------------ ------------------ ----
0x00000000ff500000            0x14000             0xffff C:\Windows\system32\taskhost.exe
0x0000000077c90000           0x1a9000             0xffff C:\Windows\SYSTEM32\ntdll.dll
0x0000000077a70000           0x11f000             0xffff C:\Windows\system32\kernel32.dll
0x000007fefdcb0000            0x6b000             0xffff C:\Windows\system32\KERNELBASE.dll
0x000007fefe7b0000            0x9f000             0xffff C:\Windows\system32\msvcrt.dll
0x000007fefe9a0000           0x203000             0xffff C:\Windows\system32\ole32.dll
0x000007fefe740000            0x67000             0xffff C:\Windows\system32\GDI32.dll
0x0000000077b90000            0xfa000             0xffff C:\Windows\system32\USER32.dll
0x000007fefe710000             0xe000             0xffff C:\Windows\system32\LPK.dll
0x000007fefe850000            0xc9000             0xffff C:\Windows\system32\USP10.dll
0x000007fefdfb0000           0x12d000             0xffff C:\Windows\system32\RPCRT4.dll
0x000007feffcc0000            0xd7000             0xffff C:\Windows\system32\OLEAUT32.dll
0x000007fefe0e0000            0x2e000                0x4 C:\Windows\system32\IMM32.DLL
0x000007fefebc0000           0x109000                0x7 C:\Windows\system32\MSCTF.dll
0x000007fefd810000             0xf000                0x2 C:\Windows\system32\CRYPTBASE.dll
0x000007fefe720000            0x1f000               0x22 C:\Windows\SYSTEM32\sechost.dll
0x000007fefe390000            0xdb000                0x6 C:\Windows\system32\ADVAPI32.dll
0x000007fefbe40000            0x56000                0x2 C:\Windows\system32\uxtheme.dll
0x000007fefb5b0000            0x18000                0x1 C:\Windows\system32\dwmapi.dll
0x000007fefe650000            0x99000                0x1 C:\Windows\system32\CLBCatQ.DLL
0x000007fefb2c0000            0x18000                0x2 C:\Windows\System32\PlaySndSrv.dll
0x000007fefd8c0000            0x14000                0x1 C:\Windows\system32\RpcRtRemote.dll
0x000007fefb140000             0xb000                0x1 C:\Windows\System32\HotStartUserAgent.dll
0x000007fefb120000             0xe000                0x1 C:\Windows\system32\dimsjob.dll
0x000007feffdf0000            0x71000                0x1 C:\Windows\system32\SHLWAPI.dll
0x000007fefb130000             0xb000                0x2 C:\Windows\system32\MsCtfMonitor.dll
0x000007fefae00000            0x3d000                0x2 C:\Windows\system32\MSUTB.dll
0x000007fefd8e0000            0x3d000                0x2 C:\Windows\system32\WINSTA.dll
0x000007fefc810000            0x11000                0x2 C:\Windows\system32\WTSAPI32.dll
0x000007fefd920000             0xb000                0x1 C:\Windows\system32\slc.dll
0x000007fefb740000           0x127000                0x1 C:\Windows\system32\taskschd.dll
0x000007fefd780000            0x25000                0x1 C:\Windows\system32\SspiCli.dll
0x000007fef9780000            0x74000                0x1 C:\Windows\System32\netprofm.dll
0x000007fefebb0000             0x8000                0x1 C:\Windows\system32\NSI.dll
0x000007fefb8b0000            0x15000                0x1 C:\Windows\System32\nlaapi.dll
0x000007fefd1e0000            0x17000                0x1 C:\Windows\system32\CRYPTSP.dll
0x000007fefcf10000            0x47000                0x1 C:\Windows\system32\rsaenh.dll
0x000007fef9760000             0xc000                0x1 C:\Windows\System32\npmproxy.dll
0x000007fefb8e0000             0xc000                0x1 C:\Windows\system32\dsrole.dll
0x000007fefb700000            0x3b000                0x2 C:\Windows\system32\WINMM.dll
************************************************************************
dwm.exe pid:   3004
Command line : "C:\Windows\system32\Dwm.exe"
Service Pack 1

Base                             Size          LoadCount Path
------------------ ------------------ ------------------ ----
0x00000000ff390000            0x23000             0xffff C:\Windows\system32\Dwm.exe
0x0000000077c90000           0x1a9000             0xffff C:\Windows\SYSTEM32\ntdll.dll
0x0000000077a70000           0x11f000             0xffff C:\Windows\system32\kernel32.dll
0x000007fefdcb0000            0x6b000             0xffff C:\Windows\system32\KERNELBASE.dll
0x000007fefe740000            0x67000             0xffff C:\Windows\system32\GDI32.dll
0x0000000077b90000            0xfa000             0xffff C:\Windows\system32\USER32.dll
0x000007fefe710000             0xe000             0xffff C:\Windows\system32\LPK.dll
0x000007fefe850000            0xc9000             0xffff C:\Windows\system32\USP10.dll
0x000007fefe7b0000            0x9f000             0xffff C:\Windows\system32\msvcrt.dll
0x000007fefbe40000            0x56000             0xffff C:\Windows\system32\UxTheme.dll
0x000007fefe0e0000            0x2e000             0xffff C:\Windows\system32\IMM32.dll
0x000007fefebc0000           0x109000             0xffff C:\Windows\system32\MSCTF.dll
0x000007fefadd0000            0x27000             0xffff C:\Windows\system32\dwmredir.dll
0x000007fef8f80000           0x192000             0xffff C:\Windows\system32\dwmcore.dll
0x000007fefe390000            0xdb000             0xffff C:\Windows\system32\ADVAPI32.dll
0x000007fefe720000            0x1f000             0xffff C:\Windows\SYSTEM32\sechost.dll
0x000007fefdfb0000           0x12d000             0xffff C:\Windows\system32\RPCRT4.dll
0x000007fefafe0000           0x12a000             0xffff C:\Windows\system32\WindowsCodecs.dll
0x000007fefe9a0000           0x203000             0xffff C:\Windows\system32\ole32.dll
0x000007fefad90000            0x34000             0xffff C:\Windows\system32\d3d10_1.dll
0x000007fef98a0000            0x55000             0xffff C:\Windows\system32\d3d10_1core.dll
0x000007fef8c00000            0xa7000             0xffff C:\Windows\system32\dxgi.dll
0x000007fefcc80000             0xc000             0xffff C:\Windows\system32\VERSION.dll
0x000007fefb5b0000            0x18000             0xffff C:\Windows\system32\dwmapi.dll
0x0000000077e60000             0x7000             0xffff C:\Windows\system32\PSAPI.DLL
0x000007fefde90000            0x3a000                0x2 C:\Windows\system32\WINTRUST.dll
0x000007fefdd20000           0x167000                0x2 C:\Windows\system32\CRYPT32.dll
0x000007fefdc80000             0xf000                0x4 C:\Windows\system32\MSASN1.dll
************************************************************************
explorer.exe pid:   2504
Command line : C:\Windows\Explorer.EXE
Service Pack 1

Base                             Size          LoadCount Path
------------------ ------------------ ------------------ ----
0x00000000ff320000           0x2c0000             0xffff C:\Windows\Explorer.EXE
0x0000000077c90000           0x1a9000             0xffff C:\Windows\SYSTEM32\ntdll.dll
0x0000000077a70000           0x11f000             0xffff C:\Windows\system32\kernel32.dll
0x000007fefdcb0000            0x6b000             0xffff C:\Windows\system32\KERNELBASE.dll
0x000007fefe390000            0xdb000             0xffff C:\Windows\system32\ADVAPI32.dll
0x000007fefe7b0000            0x9f000             0xffff C:\Windows\system32\msvcrt.dll
0x000007fefe720000            0x1f000             0xffff C:\Windows\SYSTEM32\sechost.dll
0x000007fefdfb0000           0x12d000             0xffff C:\Windows\system32\RPCRT4.dll
0x000007fefe740000            0x67000             0xffff C:\Windows\system32\GDI32.dll
0x0000000077b90000            0xfa000             0xffff C:\Windows\system32\USER32.dll
0x000007fefe710000             0xe000             0xffff C:\Windows\system32\LPK.dll
0x000007fefe850000            0xc9000             0xffff C:\Windows\system32\USP10.dll
0x000007feffdf0000            0x71000             0xffff C:\Windows\system32\SHLWAPI.dll
0x000007fefef30000           0xd88000             0xffff C:\Windows\system32\SHELL32.dll
0x000007fefe9a0000           0x203000             0xffff C:\Windows\system32\ole32.dll
0x000007feffcc0000            0xd7000             0xffff C:\Windows\system32\OLEAUT32.dll
0x000007fef8db0000           0x1ca000             0xffff C:\Windows\system32\EXPLORERFRAME.dll
0x000007fefb900000            0x43000             0xffff C:\Windows\system32\DUser.dll
0x000007fefbb20000            0xf2000             0xffff C:\Windows\system32\DUI70.dll
0x000007fefe0e0000            0x2e000             0xffff C:\Windows\system32\IMM32.dll
0x000007fefebc0000           0x109000             0xffff C:\Windows\system32\MSCTF.dll
0x000007fefbe40000            0x56000             0xffff C:\Windows\system32\UxTheme.dll
0x000007fefc050000            0x2c000             0xffff C:\Windows\system32\POWRPROF.dll
0x000007fefe470000           0x1d7000             0xffff C:\Windows\system32\SETUPAPI.dll
0x000007fefded0000            0x36000             0xffff C:\Windows\system32\CFGMGR32.dll
0x000007fefdc90000            0x1a000             0xffff C:\Windows\system32\DEVOBJ.dll
0x000007fefb5b0000            0x18000             0xffff C:\Windows\system32\dwmapi.dll
0x000007fefd920000             0xb000             0xffff C:\Windows\system32\slc.dll
0x000007fefbc20000           0x215000             0xffff C:\Windows\WinSxS\amd64_microsoft.windows.gdiplus_6595b64144ccf1df_1.1.7601.17514_none_2b24536c71ed437a\gdiplus.dll
0x000007fefd4d0000             0xb000             0xffff C:\Windows\system32\Secur32.dll
0x000007fefd780000            0x25000             0xffff C:\Windows\system32\SSPICLI.DLL
0x000007fefbea0000           0x12c000             0xffff C:\Windows\system32\PROPSYS.dll
0x000007fefd8e0000            0x3d000                0x6 C:\Windows\system32\WINSTA.dll
0x000007fefd810000             0xf000                0x2 C:\Windows\system32\CRYPTBASE.dll
0x000007fefc160000           0x1f4000               0x39 C:\Windows\WinSxS\amd64_microsoft.windows.common-controls_6595b64144ccf1df_6.0.7601.17514_none_fa396087175ac9ac\comctl32.dll
0x000007fefafe0000           0x12a000                0x2 C:\Windows\system32\WindowsCodecs.dll
0x000007fefdab0000             0xf000                0x5 C:\Windows\system32\profapi.dll
0x000007fefd7b0000            0x57000             0xffff C:\Windows\system32\apphelp.dll
0x000007fefe650000            0x99000                0x1 C:\Windows\system32\CLBCatQ.DLL
0x000007fef9860000            0x35000                0x2 C:\Windows\system32\EhStorShell.dll
0x000007fef5e20000            0x7e000                0x2 C:\Windows\System32\cscui.dll
0x000007fefaf70000             0xc000                0x2 C:\Windows\System32\CSCDLL.dll
0x000007fef85a0000             0xf000                0x4 C:\Windows\system32\CSCAPI.dll
0x000007fef5da0000            0x80000                0x5 C:\Windows\system32\ntshrui.dll
0x000007fefdb70000            0x23000                0x2 C:\Windows\system32\srvcli.dll
0x000007fefaf60000             0x8000                0x1 C:\Windows\system32\IconCodecService.dll
0x000007fefd1e0000            0x17000                0x1 C:\Windows\system32\CRYPTSP.dll
0x000007fefcf10000            0x47000                0x1 C:\Windows\system32\rsaenh.dll
0x000007fefd8c0000            0x14000                0x1 C:\Windows\system32\RpcRtRemote.dll
0x000007fefb610000            0x3b000                0x3 C:\Windows\system32\SndVolSSO.DLL
0x000007fefb8d0000             0xb000                0x4 C:\Windows\system32\HID.DLL
0x000007fefc000000            0x4b000                0xc C:\Windows\System32\MMDevApi.dll
0x000007fef5d10000            0x83000                0x1 C:\Windows\system32\timedate.cpl
0x000007fefb950000            0x19000                0x1 C:\Windows\system32\ATL.DLL
0x000007fef5b70000            0xee000                0x1 C:\Windows\system32\actxprxy.dll
0x000007fefcc50000            0x2d000                0x1 C:\Windows\system32\ntmarta.dll
0x000007fefe110000            0x52000                0x1 C:\Windows\system32\WLDAP32.dll
0x000007fefaea0000            0x34000                0x4 C:\Windows\System32\shdocvw.dll
0x000007fefdac0000            0x1e000                0x4 C:\Windows\system32\USERENV.dll
0x000007fef58c0000           0x2a3000                0x1 C:\Windows\System32\gameux.dll
0x000007fefb540000            0x35000                0x7 C:\Windows\System32\XmlLite.dll
0x000007fefdd20000           0x167000                0xc C:\Windows\system32\CRYPT32.dll
0x000007fefdc80000             0xf000                0xc C:\Windows\system32\MSASN1.dll
0x000007fef9340000            0x7c000                0x1 C:\Windows\System32\wer.dll
0x000007fefbfd0000            0x24000                0x1 C:\Windows\System32\shacct.dll
0x000007fefdae0000            0x1d000                0x2 C:\Windows\system32\SAMLIB.dll
0x000007fef57f0000            0xc6000                0x2 C:\Windows\system32\MsftEdit.dll
0x000007fefae60000            0x3b000                0x1 C:\Windows\system32\msls31.dll
0x000007fef5770000            0x7f000                0x1 C:\Program Files\Common Files\microsoft shared\ink\tiptsf.dll
0x000007fefc630000           0x1da000                0x1 C:\Windows\system32\authui.dll
0x000007fefc360000           0x109000                0x1 C:\Windows\system32\CRYPTUI.dll
0x000007fefe170000           0x178000                0x9 C:\Windows\system32\urlmon.dll
0x000007feffe70000           0x12a000                0x6 C:\Windows\system32\WININET.dll
0x000007fefecd0000           0x259000                0xc C:\Windows\system32\iertutil.dll
0x000007fef7f80000             0xc000                0x1 C:\Windows\system32\LINKINFO.dll
0x000007fef3b70000            0x1f000                0x1 C:\Windows\system32\thumbcache.dll
0x0000000077e60000             0x7000                0x3 C:\Windows\system32\PSAPI.DLL
0x000007fef5ea0000           0x19c000                0x1 C:\Windows\system32\NetworkExplorer.dll
0x000007fefb700000            0x3b000                0xe C:\Windows\system32\WINMM.dll
0x000007fefb6c0000            0x3b000                0x5 C:\Windows\system32\wdmaud.drv
0x00000000759a0000             0x6000                0x5 C:\Windows\system32\ksuser.dll
0x000007fefc130000             0x9000                0x5 C:\Windows\system32\AVRT.dll
0x000007fefb4f0000            0x4f000                0x2 C:\Windows\system32\AUDIOSES.DLL
0x000007fefb3c0000             0xa000                0x2 C:\Windows\system32\msacm32.drv
0x000007fefb360000            0x18000                0x2 C:\Windows\system32\MSACM32.dll
0x000007fefb340000             0x9000                0x1 C:\Windows\system32\midimap.dll
0x000007fef3b40000            0x21000                0x1 C:\Windows\System32\UIAnimation.dll
0x000007fefd820000            0x91000                0x1 C:\Windows\system32\SXS.DLL
0x000007fef6b40000            0x73000                0x1 C:\Program Files\Internet Explorer\ieproxy.dll
0x000007fef3f10000           0xbb7000                0x2 C:\Windows\system32\ieframe.DLL
0x000007fef3eb0000            0x54000                0x2 C:\Windows\system32\OLEACC.dll
0x000007fef3690000            0x7b000                0x2 C:\Windows\System32\StructuredQuery.dll
0x000007fefdba0000             0xc000                0x5 C:\Windows\system32\netutils.dll
0x000007fefabf0000            0x43000                0x5 C:\Windows\system32\stobject.dll
0x000007fefab30000            0xba000                0x5 C:\Windows\system32\BatMeter.dll
0x000007fefc810000            0x11000                0x1 C:\Windows\system32\WTSAPI32.dll
0x000007fefde90000            0x3a000                0x1 C:\Windows\system32\WINTRUST.dll
0x000007fefaac0000            0x69000                0x1 C:\Windows\system32\prnfldr.dll
0x000007fef87b0000            0x71000                0x2 C:\Windows\system32\WINSPOOL.DRV
0x000007fefb650000            0x67000                0x1 C:\Windows\system32\es.dll
0x000007fefaa40000            0x74000                0x1 C:\Windows\system32\dxp.dll
0x000007fefaa20000            0x16000                0x1 C:\Windows\system32\Syncreg.dll
0x000007fefad50000             0xb000                0x1 C:\Windows\ehome\ehSSO.dll
0x000007fef5250000           0x28b000                0x1 C:\Windows\System32\netshell.dll
0x000007fefd940000            0x27000                0x4 C:\Windows\System32\IPHLPAPI.DLL
0x000007fefebb0000             0x8000               0x11 C:\Windows\system32\NSI.dll
0x000007fefd930000             0xb000                0x4 C:\Windows\System32\WINNSI.DLL
0x000007fefb8b0000            0x15000                0x2 C:\Windows\System32\nlaapi.dll
0x000007fefacc0000            0x10000                0x2 C:\Windows\System32\AltTab.dll
0x000007fef9820000            0x20000                0x1 C:\Windows\system32\wpdshserviceobj.dll
0x000007fef8d70000            0x39000                0x1 C:\Windows\system32\PortableDeviceTypes.dll
0x000007fef93f0000            0xbd000                0x1 C:\Windows\system32\PortableDeviceApi.dll
0x000007fefb740000           0x127000                0x1 C:\Windows\system32\taskschd.dll
0x000007fef9800000            0x1d000                0x1 C:\Windows\system32\mssprxy.dll
0x000007fef5090000           0x1bd000                0x1 C:\Windows\System32\pnidui.dll
0x000007fefaa00000            0x1f000                0x2 C:\Windows\System32\QUtil.dll
0x000007fefd3f0000            0x6d000                0x6 C:\Windows\System32\wevtapi.dll
0x000007fefa5b0000            0x71000                0x1 C:\Windows\system32\WINHTTP.dll
0x000007fefa3a0000            0x64000                0x1 C:\Windows\system32\webio.dll
0x000007fefb320000            0x11000                0x1 C:\Windows\system32\dhcpcsvc6.DLL
0x000007feffda0000            0x4d000                0x6 C:\Windows\system32\WS2_32.dll
0x000007fefc610000            0x18000                0x1 C:\Windows\system32\dhcpcsvc.DLL
0x000007fefce10000             0xa000                0x1 C:\Windows\system32\credssp.dll
0x000007fef9760000             0xc000                0x1 C:\Windows\System32\npmproxy.dll
0x000007fef3920000            0x20000                0x1 C:\Windows\system32\Wlanapi.dll
0x000007fef5ca0000             0x7000                0x1 C:\Windows\system32\wlanutil.dll
0x000007fef3790000            0x5e000                0x1 C:\Windows\system32\wwanapi.dll
0x000007fef3910000             0xd000                0x1 C:\Windows\system32\wwapi.dll
0x000007fef3740000            0x45000                0x1 C:\Windows\System32\QAgent.dll
0x000007fef7f20000            0x3f000                0x2 C:\Windows\System32\cscobj.dll
0x000007fef5cb0000            0x58000                0x1 C:\Windows\System32\srchadmin.dll
0x000007fef4f00000            0xb5000                0x1 C:\Windows\System32\bthprops.cpl
0x000007fef4b50000           0x22b000                0x1 C:\Windows\System32\SyncCenter.dll
0x000007fef4fc0000            0xc2000                0x2 C:\Windows\System32\Actioncenter.dll
0x000007fef4ad0000            0x7f000                0x1 C:\Windows\system32\imapi2.dll
0x000007fef3e50000            0x55000                0x1 C:\Windows\System32\hgcpl.dll
0x000007fef6b00000            0x31000                0x1 C:\Windows\System32\provsvc.dll
0x000007fef9780000            0x74000                0x1 C:\Windows\System32\netprofm.dll
0x000007fefdb50000            0x15000                0x2 C:\Windows\system32\wkscli.dll
0x000007fef29e0000            0xd7000                0x1 C:\Windows\system32\SearchFolder.dll
0x000007fefdb30000            0x14000                0x1 C:\Windows\system32\samcli.dll
0x000007fefcce0000            0x12000                0x1 C:\Windows\system32\DEVRTL.dll
0x000007fef3cd0000            0x3b000                0x1 C:\Windows\system32\MLANG.dll
0x000007fef4e20000            0xd7000                0x1 C:\Windows\system32\fxsst.dll
0x000007fef4d80000            0x9d000                0x1 C:\Windows\system32\FXSAPI.dll
0x00000000758b0000            0xe3000                0x1 C:\Windows\system32\FXSRESM.DLL
0x000007fefcc80000             0xc000                0x1 C:\Windows\system32\VERSION.dll
0x000007fefdbd0000            0x18000                0x2 C:\Windows\system32\MPR.dll
0x000007fefc990000           0x225000                0x1 C:\Windows\system32\VBoxMRXNP.dll
0x000007fefc950000             0xa000                0x1 C:\Windows\System32\drprov.dll
0x000007fefc920000            0x22000                0x1 C:\Windows\System32\ntlanman.dll
0x000007fefc900000            0x1c000                0x1 C:\Windows\System32\davclnt.dll
0x000007fefc8f0000             0xa000                0x1 C:\Windows\System32\DAVHLPR.dll
0x000007fef1d50000           0x271000                0x1 C:\Windows\system32\wpdshext.dll
0x000007fefad60000            0x27000                0x1 C:\Windows\system32\EhStorAPI.dll
0x000007fefb8e0000             0xc000                0x1 C:\Windows\system32\dsrole.dll
************************************************************************
VBoxTray.exe pid:   2304
Command line : "C:\Windows\System32\VBoxTray.exe" 
Service Pack 1

Base                             Size          LoadCount Path
------------------ ------------------ ------------------ ----
0x000000013f2a0000           0x285000             0xffff C:\Windows\System32\VBoxTray.exe
0x0000000077c90000           0x1a9000             0xffff C:\Windows\SYSTEM32\ntdll.dll
0x0000000077a70000           0x11f000             0xffff C:\Windows\system32\kernel32.dll
0x000007fefdcb0000            0x6b000             0xffff C:\Windows\system32\KERNELBASE.dll
0x0000000077b90000            0xfa000             0xffff C:\Windows\system32\USER32.dll
0x000007fefe740000            0x67000             0xffff C:\Windows\system32\GDI32.dll
0x000007fefe710000             0xe000             0xffff C:\Windows\system32\LPK.dll
0x000007fefe850000            0xc9000             0xffff C:\Windows\system32\USP10.dll
0x000007fefe7b0000            0x9f000             0xffff C:\Windows\system32\msvcrt.dll
0x000007fefe390000            0xdb000             0xffff C:\Windows\system32\ADVAPI32.dll
0x000007fefe720000            0x1f000             0xffff C:\Windows\SYSTEM32\sechost.dll
0x000007fefdfb0000           0x12d000             0xffff C:\Windows\system32\RPCRT4.dll
0x000007fefef30000           0xd88000             0xffff C:\Windows\system32\SHELL32.dll
0x000007feffdf0000            0x71000             0xffff C:\Windows\system32\SHLWAPI.dll
0x000007fefe9a0000           0x203000             0xffff C:\Windows\system32\ole32.dll
0x000007fefe0e0000            0x2e000                0x2 C:\Windows\system32\IMM32.DLL
0x000007fefebc0000           0x109000                0x1 C:\Windows\system32\MSCTF.dll
0x000007feffda0000            0x4d000                0x1 C:\Windows\system32\ws2_32.dll
0x000007fefebb0000             0x8000                0x1 C:\Windows\system32\NSI.dll
0x000007fefbe40000            0x56000                0x3 C:\Windows\system32\uxtheme.dll
0x000007fefc810000            0x11000                0x1 C:\Windows\system32\WTSAPI32.DLL
0x000007fefd8e0000            0x3d000                0x2 C:\Windows\System32\WINSTA.dll
0x000007fefae40000            0x11000                0x2 C:\Windows\System32\VBoxHook.dll
0x000007fefd810000             0xf000                0x2 C:\Windows\System32\CRYPTBASE.dll
0x000007fefd780000            0x25000                0x1 C:\Windows\System32\SspiCli.dll
0x000007fefd1e0000            0x17000                0x1 C:\Windows\System32\CRYPTSP.dll
0x000007fefcf10000            0x47000                0x1 C:\Windows\system32\rsaenh.dll
0x000007fefd8c0000            0x14000                0x1 C:\Windows\System32\RpcRtRemote.dll
************************************************************************
SearchProtocol pid:   2524
Command line : "C:\Windows\system32\SearchProtocolHost.exe" Global\UsGthrFltPipeMssGthrPipe_S-1-5-21-3073570648-3149397540-2269648332-10032_ Global\UsGthrCtrlFltPipeMssGthrPipe_S-1-5-21-3073570648-3149397540-2269648332-10032 1 -2147483646 "Software\Microsoft\Windows Search" "Mozilla/4.0 (compatible; MSIE 6.0; Windows NT; MS Search 4.0 Robot)" "C:\ProgramData\Microsoft\Search\Data\Temp\usgthrsvc" "DownLevelDaemon"  "1"
Service Pack 1

Base                             Size          LoadCount Path
------------------ ------------------ ------------------ ----
0x00000000ff610000            0x41000             0xffff C:\Windows\system32\SearchProtocolHost.exe
0x0000000077c90000           0x1a9000             0xffff C:\Windows\SYSTEM32\ntdll.dll
0x0000000077a70000           0x11f000             0xffff C:\Windows\system32\kernel32.dll
0x000007fefdcb0000            0x6b000             0xffff C:\Windows\system32\KERNELBASE.dll
0x000007fefe390000            0xdb000             0xffff C:\Windows\system32\ADVAPI32.dll
0x000007fefe7b0000            0x9f000             0xffff C:\Windows\system32\msvcrt.dll
0x000007fefe720000            0x1f000             0xffff C:\Windows\SYSTEM32\sechost.dll
0x000007fefdfb0000           0x12d000             0xffff C:\Windows\system32\RPCRT4.dll
0x0000000077b90000            0xfa000             0xffff C:\Windows\system32\USER32.dll
0x000007fefe740000            0x67000             0xffff C:\Windows\system32\GDI32.dll
0x000007fefe710000             0xe000             0xffff C:\Windows\system32\LPK.dll
0x000007fefe850000            0xc9000             0xffff C:\Windows\system32\USP10.dll
0x000007fefe9a0000           0x203000             0xffff C:\Windows\system32\ole32.dll
0x000007feffcc0000            0xd7000             0xffff C:\Windows\system32\OLEAUT32.dll
0x000007fef7cb0000           0x238000             0xffff C:\Windows\system32\TQUERY.DLL
0x000007feffdf0000            0x71000             0xffff C:\Windows\system32\SHLWAPI.dll
0x000007fefb2f0000             0x8000             0xffff C:\Windows\system32\MSSHooks.dll
0x000007fefe0e0000            0x2e000             0xffff C:\Windows\system32\IMM32.dll
0x000007fefebc0000           0x109000             0xffff C:\Windows\system32\MSCTF.dll
0x000007fefd810000             0xf000                0x2 C:\Windows\system32\CRYPTBASE.dll
0x000007fef64d0000             0x7000               0x20 C:\Windows\system32\Msidle.dll
0x000007fefe650000            0x99000                0x1 C:\Windows\system32\CLBCatQ.DLL
0x000007fefd1e0000            0x17000                0x1 C:\Windows\system32\CRYPTSP.dll
0x000007fefcf10000            0x47000                0x1 C:\Windows\system32\rsaenh.dll
0x000007fefd8c0000            0x14000                0x1 C:\Windows\system32\RpcRtRemote.dll
0x000007fef9800000            0x1d000                0x1 C:\Windows\system32\mssprxy.dll
0x000007fef2c00000            0xc2000                0x1 C:\Windows\system32\mssvp.dll
0x000007fefb180000            0x1b000                0x1 C:\Windows\system32\MAPI32.dll
0x000007fefef30000           0xd88000                0x1 C:\Windows\system32\SHELL32.dll
0x000007fef85a0000             0xf000                0x1 C:\Windows\system32\cscapi.dll
0x000007fef7f20000            0x3f000                0x2 C:\Windows\System32\cscobj.dll
0x000007fefdac0000            0x1e000                0x2 C:\Windows\System32\USERENV.dll
0x000007fefdab0000             0xf000                0x2 C:\Windows\System32\profapi.dll
************************************************************************
SearchFilterHo pid:   1720
Command line : "C:\Windows\system32\SearchFilterHost.exe" 0 508 512 520 65536 516 
Service Pack 1

Base                             Size          LoadCount Path
------------------ ------------------ ------------------ ----
0x00000000ffdd0000            0x20000             0xffff C:\Windows\system32\SearchFilterHost.exe
0x0000000077c90000           0x1a9000             0xffff C:\Windows\SYSTEM32\ntdll.dll
0x0000000077a70000           0x11f000             0xffff C:\Windows\system32\kernel32.dll
0x000007fefdcb0000            0x6b000             0xffff C:\Windows\system32\KERNELBASE.dll
0x000007fefe390000            0xdb000             0xffff C:\Windows\system32\ADVAPI32.dll
0x000007fefe7b0000            0x9f000             0xffff C:\Windows\system32\msvcrt.dll
0x000007fefe720000            0x1f000             0xffff C:\Windows\SYSTEM32\sechost.dll
0x000007fefdfb0000           0x12d000             0xffff C:\Windows\system32\RPCRT4.dll
0x0000000077b90000            0xfa000             0xffff C:\Windows\system32\USER32.dll
0x000007fefe740000            0x67000             0xffff C:\Windows\system32\GDI32.dll
0x000007fefe710000             0xe000             0xffff C:\Windows\system32\LPK.dll
0x000007fefe850000            0xc9000             0xffff C:\Windows\system32\USP10.dll
0x000007fefe9a0000           0x203000             0xffff C:\Windows\system32\ole32.dll
0x000007feffcc0000            0xd7000             0xffff C:\Windows\system32\OLEAUT32.dll
0x000007fef7cb0000           0x238000             0xffff C:\Windows\system32\TQUERY.DLL
0x000007feffdf0000            0x71000             0xffff C:\Windows\system32\SHLWAPI.dll
0x000007fefe0e0000            0x2e000             0xffff C:\Windows\system32\IMM32.dll
0x000007fefebc0000           0x109000             0xffff C:\Windows\system32\MSCTF.dll
0x000007fefb2f0000             0x8000             0xffff C:\Windows\system32\MSSHooks.dll
0x000007fef2cd0000            0x6f000             0xffff C:\Windows\system32\mscoree.dll
0x000007fefd810000             0xf000                0x2 C:\Windows\system32\CRYPTBASE.dll
0x000007fefe650000            0x99000                0x1 C:\Windows\system32\CLBCatQ.DLL
0x000007fefd1e0000            0x17000                0x1 C:\Windows\system32\CRYPTSP.dll
0x000007fefcf10000            0x47000                0x1 C:\Windows\system32\rsaenh.dll
0x000007fefd8c0000            0x14000                0x1 C:\Windows\system32\RpcRtRemote.dll
0x000007fef9800000            0x1d000                0x1 C:\Windows\system32\mssprxy.dll
0x000007fefd820000            0x91000                0x1 C:\Windows\system32\SXS.DLL
************************************************************************
WinRAR.exe pid:   1512
Command line : "C:\Program Files\WinRAR\WinRAR.exe" "C:\Users\Alissa Simpson\Documents\Important.rar"
Service Pack 1

Base                             Size          LoadCount Path
------------------ ------------------ ------------------ ----
0x000000013f710000           0x2e1000             0xffff C:\Program Files\WinRAR\WinRAR.exe
0x0000000077c90000           0x1a9000             0xffff C:\Windows\SYSTEM32\ntdll.dll
0x0000000077a70000           0x11f000             0xffff C:\Windows\system32\kernel32.dll
0x000007fefdcb0000            0x6b000             0xffff C:\Windows\system32\KERNELBASE.dll
0x0000000077b90000            0xfa000             0xffff C:\Windows\system32\USER32.dll
0x000007fefe740000            0x67000             0xffff C:\Windows\system32\GDI32.dll
0x000007fefe710000             0xe000             0xffff C:\Windows\system32\LPK.dll
0x000007fefe850000            0xc9000             0xffff C:\Windows\system32\USP10.dll
0x000007fefe7b0000            0x9f000             0xffff C:\Windows\system32\msvcrt.dll
0x000007fefe2f0000            0x97000             0xffff C:\Windows\system32\COMDLG32.dll
0x000007feffdf0000            0x71000             0xffff C:\Windows\system32\SHLWAPI.dll
0x000007fefc160000           0x1f4000             0xffff C:\Windows\WinSxS\amd64_microsoft.windows.common-controls_6595b64144ccf1df_6.0.7601.17514_none_fa396087175ac9ac\COMCTL32.dll
0x000007fefef30000           0xd88000             0xffff C:\Windows\system32\SHELL32.dll
0x000007fefe390000            0xdb000             0xffff C:\Windows\system32\ADVAPI32.dll
0x000007fefe720000            0x1f000             0xffff C:\Windows\SYSTEM32\sechost.dll
0x000007fefdfb0000           0x12d000             0xffff C:\Windows\system32\RPCRT4.dll
0x000007fefe9a0000           0x203000             0xffff C:\Windows\system32\ole32.dll
0x000007feffcc0000            0xd7000             0xffff C:\Windows\system32\OLEAUT32.dll
0x000007fefc050000            0x2c000             0xffff C:\Windows\system32\POWRPROF.dll
0x000007fefe470000           0x1d7000             0xffff C:\Windows\system32\SETUPAPI.dll
0x000007fefded0000            0x36000             0xffff C:\Windows\system32\CFGMGR32.dll
0x000007fefdc90000            0x1a000             0xffff C:\Windows\system32\DEVOBJ.dll
0x000007fefbe40000            0x56000             0xffff C:\Windows\system32\UxTheme.dll
0x000007fefbc20000           0x215000             0xffff C:\Windows\WinSxS\amd64_microsoft.windows.gdiplus_6595b64144ccf1df_1.1.7601.17514_none_2b24536c71ed437a\gdiplus.dll
0x000007fefb2e0000             0x7000             0xffff C:\Windows\system32\MSIMG32.dll
0x000007fefe0e0000            0x2e000                0x4 C:\Windows\system32\IMM32.DLL
0x000007fefebc0000           0x109000                0x2 C:\Windows\system32\MSCTF.dll
0x000007fefd810000             0xf000                0x2 C:\Windows\system32\CRYPTBASE.dll
0x000007fefe650000            0x99000                0x1 C:\Windows\system32\CLBCatQ.DLL
0x000007fefbea0000           0x12c000                0x9 C:\Windows\system32\propsys.dll
0x000007fefcc50000            0x2d000                0x1 C:\Windows\system32\ntmarta.dll
0x000007fefe110000            0x52000                0x1 C:\Windows\system32\WLDAP32.dll
0x000007fef1fd0000            0x9e000                0x1 C:\Windows\system32\riched20.dll
0x000007fefb5b0000            0x18000                0x1 C:\Windows\system32\dwmapi.dll
0x000007fef5770000            0x7f000                0x1 C:\Program Files\Common Files\microsoft shared\ink\tiptsf.dll
0x000007fefafe0000           0x12a000                0x2 C:\Windows\system32\WindowsCodecs.dll
0x000007fefd7b0000            0x57000                0x1 C:\Windows\system32\apphelp.dll
0x000007fef9860000            0x35000                0x2 C:\Windows\system32\EhStorShell.dll
0x000007fef5e20000            0x7e000                0x2 C:\Windows\System32\cscui.dll
0x000007fefaf70000             0xc000                0x2 C:\Windows\System32\CSCDLL.dll
0x000007fef85a0000             0xf000                0x3 C:\Windows\system32\CSCAPI.dll
0x000007fef5da0000            0x80000                0x2 C:\Windows\system32\ntshrui.dll
0x000007fefdb70000            0x23000                0x1 C:\Windows\system32\srvcli.dll
0x000007fefd920000             0xb000                0x2 C:\Windows\system32\slc.dll
0x000007fefdbd0000            0x18000                0x1 C:\Windows\system32\MPR.dll
0x000007fefc990000           0x225000                0x1 C:\Windows\system32\VBoxMRXNP.dll
0x000007feffda0000            0x4d000                0x1 C:\Windows\system32\ws2_32.dll
0x000007fefebb0000             0x8000                0x1 C:\Windows\system32\NSI.dll
0x000007fefc950000             0xa000                0x1 C:\Windows\System32\drprov.dll
0x000007fefd8e0000            0x3d000                0x1 C:\Windows\System32\WINSTA.dll
0x000007fefc920000            0x22000                0x1 C:\Windows\System32\ntlanman.dll
0x000007fefc900000            0x1c000                0x1 C:\Windows\System32\davclnt.dll
0x000007fefc8f0000             0xa000                0x1 C:\Windows\System32\DAVHLPR.dll
0x000007fefdb50000            0x15000                0x1 C:\Windows\system32\wkscli.dll
0x000007fefdba0000             0xc000                0x2 C:\Windows\system32\netutils.dll
0x000007fef1d50000           0x271000                0x1 C:\Windows\system32\wpdshext.dll
0x000007fefb700000            0x3b000                0x1 C:\Windows\system32\WINMM.dll
0x000007fef93f0000            0xbd000                0x1 C:\Windows\system32\PortableDeviceApi.dll
0x000007fefde90000            0x3a000                0x1 C:\Windows\system32\WINTRUST.dll
0x000007fefdd20000           0x167000                0x1 C:\Windows\system32\CRYPT32.dll
0x000007fefdc80000             0xf000                0x2 C:\Windows\system32\MSASN1.dll
0x000007fefad60000            0x27000                0x1 C:\Windows\system32\EhStorAPI.dll
0x000007fefaea0000            0x34000                0x1 C:\Windows\System32\shdocvw.dll
0x000007fefd4d0000             0xb000                0x1 C:\Windows\system32\Secur32.dll
0x000007fefd780000            0x25000                0x1 C:\Windows\system32\SSPICLI.DLL
0x000007fefdab0000             0xf000                0x1 C:\Windows\system32\profapi.dll
0x000007fefd1e0000            0x17000                0x1 C:\Windows\system32\CRYPTSP.dll
0x000007fefcf10000            0x47000                0x1 C:\Windows\system32\rsaenh.dll
************************************************************************
SearchProtocol pid:   2868
Command line : "C:\Windows\system32\SearchProtocolHost.exe" Global\UsGthrFltPipeMssGthrPipe3_ Global\UsGthrCtrlFltPipeMssGthrPipe3 1 -2147483646 "Software\Microsoft\Windows Search" "Mozilla/4.0 (compatible; MSIE 6.0; Windows NT; MS Search 4.0 Robot)" "C:\ProgramData\Microsoft\Search\Data\Temp\usgthrsvc" "DownLevelDaemon" 
Service Pack 1

Base                             Size          LoadCount Path
------------------ ------------------ ------------------ ----
0x00000000ff610000            0x41000             0xffff C:\Windows\system32\SearchProtocolHost.exe
0x0000000077c90000           0x1a9000             0xffff C:\Windows\SYSTEM32\ntdll.dll
0x0000000077a70000           0x11f000             0xffff C:\Windows\system32\kernel32.dll
0x000007fefdcb0000            0x6b000             0xffff C:\Windows\system32\KERNELBASE.dll
0x000007fefe390000            0xdb000             0xffff C:\Windows\system32\ADVAPI32.dll
0x000007fefe7b0000            0x9f000             0xffff C:\Windows\system32\msvcrt.dll
0x000007fefe720000            0x1f000             0xffff C:\Windows\SYSTEM32\sechost.dll
0x000007fefdfb0000           0x12d000             0xffff C:\Windows\system32\RPCRT4.dll
0x0000000077b90000            0xfa000             0xffff C:\Windows\system32\USER32.dll
0x000007fefe740000            0x67000             0xffff C:\Windows\system32\GDI32.dll
0x000007fefe710000             0xe000             0xffff C:\Windows\system32\LPK.dll
0x000007fefe850000            0xc9000             0xffff C:\Windows\system32\USP10.dll
0x000007fefe9a0000           0x203000             0xffff C:\Windows\system32\ole32.dll
0x000007feffcc0000            0xd7000             0xffff C:\Windows\system32\OLEAUT32.dll
0x000007fef7cb0000           0x238000             0xffff C:\Windows\system32\TQUERY.DLL
0x000007feffdf0000            0x71000             0xffff C:\Windows\system32\SHLWAPI.dll
0x000007fefb2f0000             0x8000             0xffff C:\Windows\system32\MSSHooks.dll
0x000007fefe0e0000            0x2e000             0xffff C:\Windows\system32\IMM32.dll
0x000007fefebc0000           0x109000             0xffff C:\Windows\system32\MSCTF.dll
0x000007fefd810000             0xf000                0x2 C:\Windows\system32\CRYPTBASE.dll
0x000007fef64d0000             0x7000               0x20 C:\Windows\system32\Msidle.dll
0x000007fefe650000            0x99000                0x1 C:\Windows\system32\CLBCatQ.DLL
0x000007fefd1e0000            0x17000                0x1 C:\Windows\system32\CRYPTSP.dll
0x000007fefcf10000            0x47000                0x1 C:\Windows\system32\rsaenh.dll
0x000007fefd8c0000            0x14000                0x1 C:\Windows\system32\RpcRtRemote.dll
0x000007fef9800000            0x1d000                0x1 C:\Windows\system32\mssprxy.dll
0x000007fef2b30000            0x7d000                0x1 C:\Windows\system32\mssph.dll
0x000007fefb180000            0x1b000                0x1 C:\Windows\system32\MAPI32.dll
0x000007fefd3b0000            0x2f000                0x1 C:\Windows\system32\AUTHZ.dll
0x000007fefcc50000            0x2d000                0x1 C:\Windows\system32\ntmarta.dll
0x000007fefe110000            0x52000                0x1 C:\Windows\system32\WLDAP32.dll
0x000007fefef30000           0xd88000                0x2 C:\Windows\system32\SHELL32.dll
0x000007fefc160000           0x1f4000                0x2 C:\Windows\WinSxS\amd64_microsoft.windows.common-controls_6595b64144ccf1df_6.0.7601.17514_none_fa396087175ac9ac\comctl32.dll
0x000007fefbea0000           0x12c000                0x4 C:\Windows\system32\propsys.dll
0x000007fefe470000           0x1d7000                0x1 C:\Windows\system32\SETUPAPI.dll
0x000007fefded0000            0x36000                0x4 C:\Windows\system32\CFGMGR32.dll
0x000007fefdc90000            0x1a000                0x1 C:\Windows\system32\DEVOBJ.dll
0x000007fefdab0000             0xf000                0x1 C:\Windows\system32\profapi.dll
************************************************************************
DumpIt.exe pid:    796
Command line : "C:\Users\SmartNet\Downloads\DumpIt\DumpIt.exe" 
Note: use ldrmodules for listing DLLs in Wow64 processes


Base                             Size          LoadCount Path
------------------ ------------------ ------------------ ----
0x0000000001340000            0x35000             0xffff C:\Users\SmartNet\Downloads\DumpIt\DumpIt.exe
0x0000000077c90000           0x1a9000             0xffff C:\Windows\SYSTEM32\ntdll.dll
0x0000000075480000            0x3f000                0x3 C:\Windows\SYSTEM32\wow64.dll
0x0000000075420000            0x5c000                0x1 C:\Windows\SYSTEM32\wow64win.dll
0x0000000075410000             0x8000                0x1 C:\Windows\SYSTEM32\wow64cpu.dll
************************************************************************
conhost.exe pid:   2260
Command line : \??\C:\Windows\system32\conhost.exe
Service Pack 1

Base                             Size          LoadCount Path
------------------ ------------------ ------------------ ----
0x00000000ff710000            0x57000             0xffff C:\Windows\system32\conhost.exe
0x0000000077c90000           0x1a9000             0xffff C:\Windows\SYSTEM32\ntdll.dll
0x0000000077a70000           0x11f000             0xffff C:\Windows\system32\kernel32.dll
0x000007fefdcb0000            0x6b000             0xffff C:\Windows\system32\KERNELBASE.dll
0x000007fefe740000            0x67000             0xffff C:\Windows\system32\GDI32.dll
0x0000000077b90000            0xfa000             0xffff C:\Windows\system32\USER32.dll
0x000007fefe710000             0xe000             0xffff C:\Windows\system32\LPK.dll
0x000007fefe850000            0xc9000             0xffff C:\Windows\system32\USP10.dll
0x000007fefe7b0000            0x9f000             0xffff C:\Windows\system32\msvcrt.dll
0x000007fefe0e0000            0x2e000             0xffff C:\Windows\system32\IMM32.dll
0x000007fefebc0000           0x109000             0xffff C:\Windows\system32\MSCTF.dll
0x000007fefe9a0000           0x203000             0xffff C:\Windows\system32\ole32.dll
0x000007fefdfb0000           0x12d000             0xffff C:\Windows\system32\RPCRT4.dll
0x000007feffcc0000            0xd7000             0xffff C:\Windows\system32\OLEAUT32.dll
0x000007fefbe40000            0x56000                0x3 C:\Windows\system32\uxtheme.dll
0x000007fefb5b0000            0x18000                0x1 C:\Windows\system32\dwmapi.dll
0x000007fefe390000            0xdb000                0x1 C:\Windows\system32\ADVAPI32.dll
0x000007fefe720000            0x1f000                0x4 C:\Windows\SYSTEM32\sechost.dll
0x000007fefc160000           0x1f4000                0x1 C:\Windows\WinSxS\amd64_microsoft.windows.common-controls_6595b64144ccf1df_6.0.7601.17514_none_fa396087175ac9ac\comctl32.DLL
0x000007feffdf0000            0x71000                0x1 C:\Windows\system32\SHLWAPI.dll
0x000007fefd810000             0xf000                0x1 C:\Windows\system32\CRYPTBASE.dll



############################################################
# TAB: Network
############################################################


============================================================
  NETWORK SCAN (netscan)
  Dump: MemoryDump_Lab1.raw
  Time: 2026-05-07 18:21:29
============================================================

Offset(P)          Proto    Local Address                  Foreign Address      State            Pid      Owner          Created
0x3e80b840         UDPv4    0.0.0.0:3702                   *:*                                   472      svchost.exe    2019-12-11 14:32:50 UTC+0000
0x3e80b840         UDPv6    :::3702                        *:*                                   472      svchost.exe    2019-12-11 14:32:50 UTC+0000
0x3e80bbb0         UDPv4    0.0.0.0:3702                   *:*                                   472      svchost.exe    2019-12-11 14:32:50 UTC+0000
0x3e80bbb0         UDPv6    :::3702                        *:*                                   472      svchost.exe    2019-12-11 14:32:50 UTC+0000
0x3e820ec0         UDPv4    0.0.0.0:0                      *:*                                   2368     svchost.exe    2019-12-11 14:32:51 UTC+0000
0x3e820ec0         UDPv6    :::0                           *:*                                   2368     svchost.exe    2019-12-11 14:32:51 UTC+0000
0x3e825ec0         UDPv4    0.0.0.0:0                      *:*                                   2368     svchost.exe    2019-12-11 14:32:52 UTC+0000
0x3e825ec0         UDPv6    :::0                           *:*                                   2368     svchost.exe    2019-12-11 14:32:52 UTC+0000
0x3e86c5a0         UDPv4    0.0.0.0:0                      *:*                                   2368     svchost.exe    2019-12-11 14:33:03 UTC+0000
0x3e86c5a0         UDPv6    :::0                           *:*                                   2368     svchost.exe    2019-12-11 14:33:03 UTC+0000
0x3e8acba0         UDPv4    0.0.0.0:59438                  *:*                                   472      svchost.exe    2019-12-11 14:33:14 UTC+0000
0x3e8acba0         UDPv6    :::59438                       *:*                                   472      svchost.exe    2019-12-11 14:33:14 UTC+0000
0x3e8ae9c0         UDPv4    0.0.0.0:59437                  *:*                                   472      svchost.exe    2019-12-11 14:33:14 UTC+0000
0x3ea062d0         UDPv4    0.0.0.0:19                     *:*                                   1416     TCPSVCS.EXE    2019-12-11 13:41:56 UTC+0000
0x3ea062d0         UDPv6    :::19                          *:*                                   1416     TCPSVCS.EXE    2019-12-11 13:41:56 UTC+0000
0x3ea06a40         UDPv4    0.0.0.0:19                     *:*                                   1416     TCPSVCS.EXE    2019-12-11 13:41:56 UTC+0000
0x3ea10200         UDPv4    0.0.0.0:17                     *:*                                   1416     TCPSVCS.EXE    2019-12-11 13:41:56 UTC+0000
0x3ea10200         UDPv6    :::17                          *:*                                   1416     TCPSVCS.EXE    2019-12-11 13:41:56 UTC+0000
0x3ea10970         UDPv4    0.0.0.0:17                     *:*                                   1416     TCPSVCS.EXE    2019-12-11 13:41:56 UTC+0000
0x3ea39190         UDPv4    0.0.0.0:49194                  *:*                                   1372     svchost.exe    2019-12-11 13:41:58 UTC+0000
0x3ea3c940         UDPv4    0.0.0.0:49195                  *:*                                   1372     svchost.exe    2019-12-11 13:41:58 UTC+0000
0x3ea3c940         UDPv6    :::49195                       *:*                                   1372     svchost.exe    2019-12-11 13:41:58 UTC+0000
0x3ea5d010         UDPv4    0.0.0.0:0                      *:*                                   1044     svchost.exe    2019-12-11 13:42:02 UTC+0000
0x3ea5d010         UDPv6    :::0                           *:*                                   1044     svchost.exe    2019-12-11 13:42:02 UTC+0000
0x3eaab540         UDPv4    0.0.0.0:5355                   *:*                                   1044     svchost.exe    2019-12-11 13:42:05 UTC+0000
0x3eaab540         UDPv6    :::5355                        *:*                                   1044     svchost.exe    2019-12-11 13:42:05 UTC+0000
0x3eaaece0         UDPv4    10.0.2.15:137                  *:*                                   4        System         2019-12-11 13:42:02 UTC+0000
0x3ebfe300         UDPv4    0.0.0.0:3702                   *:*                                   472      svchost.exe    2019-12-11 14:32:50 UTC+0000
0x3ebfeb00         UDPv4    0.0.0.0:59435                  *:*                                   472      svchost.exe    2019-12-11 14:32:50 UTC+0000
0x3ebff1a0         UDPv4    0.0.0.0:3702                   *:*                                   472      svchost.exe    2019-12-11 14:32:50 UTC+0000
0x3ebff9b0         UDPv4    0.0.0.0:59436                  *:*                                   472      svchost.exe    2019-12-11 14:32:50 UTC+0000
0x3ebff9b0         UDPv6    :::59436                       *:*                                   472      svchost.exe    2019-12-11 14:32:50 UTC+0000
0x3ec1e6b0         UDPv4    0.0.0.0:5004                   *:*                                   1856     wmpnetwk.exe   2019-12-11 14:16:11 UTC+0000
0x3ec1ebb0         UDPv4    0.0.0.0:5004                   *:*                                   1856     wmpnetwk.exe   2019-12-11 14:16:11 UTC+0000
0x3ec1ebb0         UDPv6    :::5004                        *:*                                   1856     wmpnetwk.exe   2019-12-11 14:16:11 UTC+0000
0x3ec1f7c0         UDPv4    0.0.0.0:5005                   *:*                                   1856     wmpnetwk.exe   2019-12-11 14:16:11 UTC+0000
0x3ec1f7c0         UDPv6    :::5005                        *:*                                   1856     wmpnetwk.exe   2019-12-11 14:16:11 UTC+0000
0x3ec6f730         UDPv4    0.0.0.0:3702                   *:*                                   1372     svchost.exe    2019-12-11 13:42:09 UTC+0000
0x3ec6f730         UDPv6    :::3702                        *:*                                   1372     svchost.exe    2019-12-11 13:42:09 UTC+0000
0x3ec6fa40         UDPv4    10.0.2.15:138                  *:*                                   4        System         2019-12-11 13:42:02 UTC+0000
0x3ec72ae0         UDPv4    127.0.0.1:64388                *:*                                   1044     svchost.exe    2019-12-11 13:42:02 UTC+0000
0x3ec742f0         UDPv4    0.0.0.0:5355                   *:*                                   1044     svchost.exe    2019-12-11 13:42:05 UTC+0000
0x3ed4ae40         UDPv4    0.0.0.0:3540                   *:*                                   2368     svchost.exe    2019-12-11 14:33:03 UTC+0000
0x3ed4ae40         UDPv6    :::3540                        *:*                                   2368     svchost.exe    2019-12-11 14:33:03 UTC+0000
0x3ed58ec0         UDPv4    0.0.0.0:3702                   *:*                                   1372     svchost.exe    2019-12-11 13:42:09 UTC+0000
0x3ed95690         UDPv4    0.0.0.0:0                      *:*                                   1416     TCPSVCS.EXE    2019-12-11 13:41:55 UTC+0000
0x3ed9edd0         UDPv4    0.0.0.0:3702                   *:*                                   1372     svchost.exe    2019-12-11 13:42:09 UTC+0000
0x3ede5270         UDPv4    0.0.0.0:9                      *:*                                   1416     TCPSVCS.EXE    2019-12-11 13:41:56 UTC+0000
0x3ede7ec0         UDPv4    0.0.0.0:9                      *:*                                   1416     TCPSVCS.EXE    2019-12-11 13:41:56 UTC+0000
0x3ede7ec0         UDPv6    :::9                           *:*                                   1416     TCPSVCS.EXE    2019-12-11 13:41:56 UTC+0000
0x3ede8280         UDPv4    0.0.0.0:7                      *:*                                   1416     TCPSVCS.EXE    2019-12-11 13:41:56 UTC+0000
0x3ededd00         UDPv4    0.0.0.0:7                      *:*                                   1416     TCPSVCS.EXE    2019-12-11 13:41:56 UTC+0000
0x3ededd00         UDPv6    :::7                           *:*                                   1416     TCPSVCS.EXE    2019-12-11 13:41:56 UTC+0000
0x3edfc170         UDPv4    0.0.0.0:13                     *:*                                   1416     TCPSVCS.EXE    2019-12-11 13:41:56 UTC+0000
0x3edfc170         UDPv6    :::13                          *:*                                   1416     TCPSVCS.EXE    2019-12-11 13:41:56 UTC+0000
0x3edfc670         UDPv4    0.0.0.0:13                     *:*                                   1416     TCPSVCS.EXE    2019-12-11 13:41:56 UTC+0000
0x3ee4f3e0         UDPv6    ::1:59432                      *:*                                   1372     svchost.exe    2019-12-11 14:16:09 UTC+0000
0x3ee4f680         UDPv6    fe80::b137:133f:8d0b:8cfe:59431 *:*                                   1372     svchost.exe    2019-12-11 14:16:09 UTC+0000
0x3eeecad0         UDPv4    10.0.2.15:1900                 *:*                                   1372     svchost.exe    2019-12-11 14:16:09 UTC+0000
0x3eeecd70         UDPv6    ::1:1900                       *:*                                   1372     svchost.exe    2019-12-11 14:16:09 UTC+0000
0x3eef0bb0         UDPv4    127.0.0.1:1900                 *:*                                   1372     svchost.exe    2019-12-11 14:16:09 UTC+0000
0x3ef68010         UDPv4    0.0.0.0:3702                   *:*                                   1372     svchost.exe    2019-12-11 13:42:09 UTC+0000
0x3ef68010         UDPv6    :::3702                        *:*                                   1372     svchost.exe    2019-12-11 13:42:09 UTC+0000
0x3efc0ec0         UDPv4    0.0.0.0:5005                   *:*                                   1856     wmpnetwk.exe   2019-12-11 14:16:11 UTC+0000
0x3ea01720         TCPv4    0.0.0.0:19                     0.0.0.0:0            LISTENING        1416     TCPSVCS.EXE    
0x3ea06ef0         TCPv4    0.0.0.0:19                     0.0.0.0:0            LISTENING        1416     TCPSVCS.EXE    
0x3ea06ef0         TCPv6    :::19                          :::0                 LISTENING        1416     TCPSVCS.EXE    
0x3ea0b900         TCPv4    0.0.0.0:17                     0.0.0.0:0            LISTENING        1416     TCPSVCS.EXE    
0x3ea10ef0         TCPv4    0.0.0.0:17                     0.0.0.0:0            LISTENING        1416     TCPSVCS.EXE    
0x3ea10ef0         TCPv6    :::17                          :::0                 LISTENING        1416     TCPSVCS.EXE    
0x3ea4a670         TCPv4    0.0.0.0:49156                  0.0.0.0:0            LISTENING        484      services.exe   
0x3ea4a670         TCPv6    :::49156                       :::0                 LISTENING        484      services.exe   
0x3ea536b0         TCPv4    0.0.0.0:49156                  0.0.0.0:0            LISTENING        484      services.exe   
0x3ea5a640         TCPv4    0.0.0.0:445                    0.0.0.0:0            LISTENING        4        System         
0x3ea5a640         TCPv6    :::445                         :::0                 LISTENING        4        System         
0x3eac7760         TCPv4    0.0.0.0:3587                   0.0.0.0:0            LISTENING        2368     svchost.exe    
0x3eac7760         TCPv6    :::3587                        :::0                 LISTENING        2368     svchost.exe    
0x3ec97240         TCPv4    0.0.0.0:49154                  0.0.0.0:0            LISTENING        492      lsass.exe      
0x3ec99660         TCPv4    0.0.0.0:49154                  0.0.0.0:0            LISTENING        492      lsass.exe      
0x3ec99660         TCPv6    :::49154                       :::0                 LISTENING        492      lsass.exe      
0x3eca4230         TCPv4    0.0.0.0:49155                  0.0.0.0:0            LISTENING        876      svchost.exe    
0x3eca4230         TCPv6    :::49155                       :::0                 LISTENING        876      svchost.exe    
0x3eca4350         TCPv4    0.0.0.0:49155                  0.0.0.0:0            LISTENING        876      svchost.exe    
0x3ecb12e0         TCPv4    0.0.0.0:554                    0.0.0.0:0            LISTENING        1856     wmpnetwk.exe   
0x3ecb12e0         TCPv6    :::554                         :::0                 LISTENING        1856     wmpnetwk.exe   
0x3ecb1970         TCPv4    0.0.0.0:554                    0.0.0.0:0            LISTENING        1856     wmpnetwk.exe   
0x3ecb2ad0         TCPv4    0.0.0.0:2869                   0.0.0.0:0            LISTENING        4        System         
0x3ecb2ad0         TCPv6    :::2869                        :::0                 LISTENING        4        System         
0x3edd2160         TCPv4    0.0.0.0:5357                   0.0.0.0:0            LISTENING        4        System         
0x3edd2160         TCPv6    :::5357                        :::0                 LISTENING        4        System         
0x3ede4ef0         TCPv4    0.0.0.0:9                      0.0.0.0:0            LISTENING        1416     TCPSVCS.EXE    
0x3ede4ef0         TCPv6    :::9                           :::0                 LISTENING        1416     TCPSVCS.EXE    
0x3ede69a0         TCPv4    0.0.0.0:9                      0.0.0.0:0            LISTENING        1416     TCPSVCS.EXE    
0x3ede75d0         TCPv4    0.0.0.0:13                     0.0.0.0:0            LISTENING        1416     TCPSVCS.EXE    
0x3ede8010         TCPv4    0.0.0.0:7                      0.0.0.0:0            LISTENING        1416     TCPSVCS.EXE    
0x3ede86e0         TCPv4    0.0.0.0:7                      0.0.0.0:0            LISTENING        1416     TCPSVCS.EXE    
0x3ede86e0         TCPv6    :::7                           :::0                 LISTENING        1416     TCPSVCS.EXE    
0x3edfcad0         TCPv4    0.0.0.0:13                     0.0.0.0:0            LISTENING        1416     TCPSVCS.EXE    
0x3edfcad0         TCPv6    :::13                          :::0                 LISTENING        1416     TCPSVCS.EXE    
0x3ee90da0         TCPv4    0.0.0.0:10243                  0.0.0.0:0            LISTENING        4        System         
0x3ee90da0         TCPv6    :::10243                       :::0                 LISTENING        4        System         
0x3ef0c6c0         TCPv4    10.0.2.15:139                  0.0.0.0:0            LISTENING        4        System         
0x3ef4d010         TCPv4    0.0.0.0:135                    0.0.0.0:0            LISTENING        720      svchost.exe    
0x3ef4d010         TCPv6    :::135                         :::0                 LISTENING        720      svchost.exe    
0x3ef54350         TCPv4    0.0.0.0:49152                  0.0.0.0:0            LISTENING        424      wininit.exe    
0x3ef55cd0         TCPv4    0.0.0.0:135                    0.0.0.0:0            LISTENING        720      svchost.exe    
0x3ef5b440         TCPv4    0.0.0.0:49152                  0.0.0.0:0            LISTENING        424      wininit.exe    
0x3ef5b440         TCPv6    :::49152                       :::0                 LISTENING        424      wininit.exe    
0x3efaf010         TCPv4    0.0.0.0:49153                  0.0.0.0:0            LISTENING        816      svchost.exe    
0x3efb0ad0         TCPv4    0.0.0.0:49153                  0.0.0.0:0            LISTENING        816      svchost.exe    
0x3efb0ad0         TCPv6    :::49153                       :::0                 LISTENING        816      svchost.exe    
0x3ecb8cf0         TCPv6    -:0                            4800:ca00:80fa:ffff:4800:ca00:80fa:ffff:0 CLOSED           1        ?J3????       
0x3ed4d610         TCPv6    ::1:49163                      ::1:2869             CLOSED           1856     wmpnetwk.exe   
0x3eed7820         TCPv4    -:0                            56.155.212.1:0       CLOSED           1        ?J3????       
0x3ef5baa0         TCPv6    -:0                            389b:d401:80fa:ffff:389b:d401:80fa:ffff:0 CLOSED           1        ?J3????       
0x3ef80cf0         TCPv6    ::1:2869                       ::1:49163            CLOSED           4        System         
0x3f63cd70         UDPv4    10.0.2.15:59433                *:*                                   1372     svchost.exe    2019-12-11 14:16:09 UTC+0000
0x3f63dc20         UDPv6    fe80::b137:133f:8d0b:8cfe:1900 *:*                                   1372     svchost.exe    2019-12-11 14:16:09 UTC+0000
0x3f63dec0         UDPv4    127.0.0.1:59434                *:*                                   1372     svchost.exe    2019-12-11 14:16:09 UTC+0000
0x3f794010         TCPv6    -:0                            4800:ca00:80fa:ffff:4800:ca00:80fa:ffff:0 CLOSED           1044     svchost.exe    
0x3fcc4b60         UDPv4    0.0.0.0:0                      *:*                                   652      VBoxService.ex 2019-12-11 14:37:57 UTC+0000



============================================================
  NETWORK SCAN (netscan)
  Dump: MemoryDump_Lab1.raw
  Time: 2026-05-07 18:21:35
============================================================

Offset(P)          Proto    Local Address                  Foreign Address      State            Pid      Owner          Created
0x3e80b840         UDPv4    0.0.0.0:3702                   *:*                                   472      svchost.exe    2019-12-11 14:32:50 UTC+0000
0x3e80b840         UDPv6    :::3702                        *:*                                   472      svchost.exe    2019-12-11 14:32:50 UTC+0000
0x3e80bbb0         UDPv4    0.0.0.0:3702                   *:*                                   472      svchost.exe    2019-12-11 14:32:50 UTC+0000
0x3e80bbb0         UDPv6    :::3702                        *:*                                   472      svchost.exe    2019-12-11 14:32:50 UTC+0000
0x3e820ec0         UDPv4    0.0.0.0:0                      *:*                                   2368     svchost.exe    2019-12-11 14:32:51 UTC+0000
0x3e820ec0         UDPv6    :::0                           *:*                                   2368     svchost.exe    2019-12-11 14:32:51 UTC+0000
0x3e825ec0         UDPv4    0.0.0.0:0                      *:*                                   2368     svchost.exe    2019-12-11 14:32:52 UTC+0000
0x3e825ec0         UDPv6    :::0                           *:*                                   2368     svchost.exe    2019-12-11 14:32:52 UTC+0000
0x3e86c5a0         UDPv4    0.0.0.0:0                      *:*                                   2368     svchost.exe    2019-12-11 14:33:03 UTC+0000
0x3e86c5a0         UDPv6    :::0                           *:*                                   2368     svchost.exe    2019-12-11 14:33:03 UTC+0000
0x3e8acba0         UDPv4    0.0.0.0:59438                  *:*                                   472      svchost.exe    2019-12-11 14:33:14 UTC+0000
0x3e8acba0         UDPv6    :::59438                       *:*                                   472      svchost.exe    2019-12-11 14:33:14 UTC+0000
0x3e8ae9c0         UDPv4    0.0.0.0:59437                  *:*                                   472      svchost.exe    2019-12-11 14:33:14 UTC+0000
0x3ea062d0         UDPv4    0.0.0.0:19                     *:*                                   1416     TCPSVCS.EXE    2019-12-11 13:41:56 UTC+0000
0x3ea062d0         UDPv6    :::19                          *:*                                   1416     TCPSVCS.EXE    2019-12-11 13:41:56 UTC+0000
0x3ea06a40         UDPv4    0.0.0.0:19                     *:*                                   1416     TCPSVCS.EXE    2019-12-11 13:41:56 UTC+0000
0x3ea10200         UDPv4    0.0.0.0:17                     *:*                                   1416     TCPSVCS.EXE    2019-12-11 13:41:56 UTC+0000
0x3ea10200         UDPv6    :::17                          *:*                                   1416     TCPSVCS.EXE    2019-12-11 13:41:56 UTC+0000
0x3ea10970         UDPv4    0.0.0.0:17                     *:*                                   1416     TCPSVCS.EXE    2019-12-11 13:41:56 UTC+0000
0x3ea39190         UDPv4    0.0.0.0:49194                  *:*                                   1372     svchost.exe    2019-12-11 13:41:58 UTC+0000
0x3ea3c940         UDPv4    0.0.0.0:49195                  *:*                                   1372     svchost.exe    2019-12-11 13:41:58 UTC+0000
0x3ea3c940         UDPv6    :::49195                       *:*                                   1372     svchost.exe    2019-12-11 13:41:58 UTC+0000
0x3ea5d010         UDPv4    0.0.0.0:0                      *:*                                   1044     svchost.exe    2019-12-11 13:42:02 UTC+0000
0x3ea5d010         UDPv6    :::0                           *:*                                   1044     svchost.exe    2019-12-11 13:42:02 UTC+0000
0x3eaab540         UDPv4    0.0.0.0:5355                   *:*                                   1044     svchost.exe    2019-12-11 13:42:05 UTC+0000
0x3eaab540         UDPv6    :::5355                        *:*                                   1044     svchost.exe    2019-12-11 13:42:05 UTC+0000
0x3eaaece0         UDPv4    10.0.2.15:137                  *:*                                   4        System         2019-12-11 13:42:02 UTC+0000
0x3ebfe300         UDPv4    0.0.0.0:3702                   *:*                                   472      svchost.exe    2019-12-11 14:32:50 UTC+0000
0x3ebfeb00         UDPv4    0.0.0.0:59435                  *:*                                   472      svchost.exe    2019-12-11 14:32:50 UTC+0000
0x3ebff1a0         UDPv4    0.0.0.0:3702                   *:*                                   472      svchost.exe    2019-12-11 14:32:50 UTC+0000
0x3ebff9b0         UDPv4    0.0.0.0:59436                  *:*                                   472      svchost.exe    2019-12-11 14:32:50 UTC+0000
0x3ebff9b0         UDPv6    :::59436                       *:*                                   472      svchost.exe    2019-12-11 14:32:50 UTC+0000
0x3ec1e6b0         UDPv4    0.0.0.0:5004                   *:*                                   1856     wmpnetwk.exe   2019-12-11 14:16:11 UTC+0000
0x3ec1ebb0         UDPv4    0.0.0.0:5004                   *:*                                   1856     wmpnetwk.exe   2019-12-11 14:16:11 UTC+0000
0x3ec1ebb0         UDPv6    :::5004                        *:*                                   1856     wmpnetwk.exe   2019-12-11 14:16:11 UTC+0000
0x3ec1f7c0         UDPv4    0.0.0.0:5005                   *:*                                   1856     wmpnetwk.exe   2019-12-11 14:16:11 UTC+0000
0x3ec1f7c0         UDPv6    :::5005                        *:*                                   1856     wmpnetwk.exe   2019-12-11 14:16:11 UTC+0000
0x3ec6f730         UDPv4    0.0.0.0:3702                   *:*                                   1372     svchost.exe    2019-12-11 13:42:09 UTC+0000
0x3ec6f730         UDPv6    :::3702                        *:*                                   1372     svchost.exe    2019-12-11 13:42:09 UTC+0000
0x3ec6fa40         UDPv4    10.0.2.15:138                  *:*                                   4        System         2019-12-11 13:42:02 UTC+0000
0x3ec72ae0         UDPv4    127.0.0.1:64388                *:*                                   1044     svchost.exe    2019-12-11 13:42:02 UTC+0000
0x3ec742f0         UDPv4    0.0.0.0:5355                   *:*                                   1044     svchost.exe    2019-12-11 13:42:05 UTC+0000
0x3ed4ae40         UDPv4    0.0.0.0:3540                   *:*                                   2368     svchost.exe    2019-12-11 14:33:03 UTC+0000
0x3ed4ae40         UDPv6    :::3540                        *:*                                   2368     svchost.exe    2019-12-11 14:33:03 UTC+0000
0x3ed58ec0         UDPv4    0.0.0.0:3702                   *:*                                   1372     svchost.exe    2019-12-11 13:42:09 UTC+0000
0x3ed95690         UDPv4    0.0.0.0:0                      *:*                                   1416     TCPSVCS.EXE    2019-12-11 13:41:55 UTC+0000
0x3ed9edd0         UDPv4    0.0.0.0:3702                   *:*                                   1372     svchost.exe    2019-12-11 13:42:09 UTC+0000
0x3ede5270         UDPv4    0.0.0.0:9                      *:*                                   1416     TCPSVCS.EXE    2019-12-11 13:41:56 UTC+0000
0x3ede7ec0         UDPv4    0.0.0.0:9                      *:*                                   1416     TCPSVCS.EXE    2019-12-11 13:41:56 UTC+0000
0x3ede7ec0         UDPv6    :::9                           *:*                                   1416     TCPSVCS.EXE    2019-12-11 13:41:56 UTC+0000
0x3ede8280         UDPv4    0.0.0.0:7                      *:*                                   1416     TCPSVCS.EXE    2019-12-11 13:41:56 UTC+0000
0x3ededd00         UDPv4    0.0.0.0:7                      *:*                                   1416     TCPSVCS.EXE    2019-12-11 13:41:56 UTC+0000
0x3ededd00         UDPv6    :::7                           *:*                                   1416     TCPSVCS.EXE    2019-12-11 13:41:56 UTC+0000
0x3edfc170         UDPv4    0.0.0.0:13                     *:*                                   1416     TCPSVCS.EXE    2019-12-11 13:41:56 UTC+0000
0x3edfc170         UDPv6    :::13                          *:*                                   1416     TCPSVCS.EXE    2019-12-11 13:41:56 UTC+0000
0x3edfc670         UDPv4    0.0.0.0:13                     *:*                                   1416     TCPSVCS.EXE    2019-12-11 13:41:56 UTC+0000
0x3ee4f3e0         UDPv6    ::1:59432                      *:*                                   1372     svchost.exe    2019-12-11 14:16:09 UTC+0000
0x3ee4f680         UDPv6    fe80::b137:133f:8d0b:8cfe:59431 *:*                                   1372     svchost.exe    2019-12-11 14:16:09 UTC+0000
0x3eeecad0         UDPv4    10.0.2.15:1900                 *:*                                   1372     svchost.exe    2019-12-11 14:16:09 UTC+0000
0x3eeecd70         UDPv6    ::1:1900                       *:*                                   1372     svchost.exe    2019-12-11 14:16:09 UTC+0000
0x3eef0bb0         UDPv4    127.0.0.1:1900                 *:*                                   1372     svchost.exe    2019-12-11 14:16:09 UTC+0000
0x3ef68010         UDPv4    0.0.0.0:3702                   *:*                                   1372     svchost.exe    2019-12-11 13:42:09 UTC+0000
0x3ef68010         UDPv6    :::3702                        *:*                                   1372     svchost.exe    2019-12-11 13:42:09 UTC+0000
0x3efc0ec0         UDPv4    0.0.0.0:5005                   *:*                                   1856     wmpnetwk.exe   2019-12-11 14:16:11 UTC+0000
0x3ea01720         TCPv4    0.0.0.0:19                     0.0.0.0:0            LISTENING        1416     TCPSVCS.EXE    
0x3ea06ef0         TCPv4    0.0.0.0:19                     0.0.0.0:0            LISTENING        1416     TCPSVCS.EXE    
0x3ea06ef0         TCPv6    :::19                          :::0                 LISTENING        1416     TCPSVCS.EXE    
0x3ea0b900         TCPv4    0.0.0.0:17                     0.0.0.0:0            LISTENING        1416     TCPSVCS.EXE    
0x3ea10ef0         TCPv4    0.0.0.0:17                     0.0.0.0:0            LISTENING        1416     TCPSVCS.EXE    
0x3ea10ef0         TCPv6    :::17                          :::0                 LISTENING        1416     TCPSVCS.EXE    
0x3ea4a670         TCPv4    0.0.0.0:49156                  0.0.0.0:0            LISTENING        484      services.exe   
0x3ea4a670         TCPv6    :::49156                       :::0                 LISTENING        484      services.exe   
0x3ea536b0         TCPv4    0.0.0.0:49156                  0.0.0.0:0            LISTENING        484      services.exe   
0x3ea5a640         TCPv4    0.0.0.0:445                    0.0.0.0:0            LISTENING        4        System         
0x3ea5a640         TCPv6    :::445                         :::0                 LISTENING        4        System         
0x3eac7760         TCPv4    0.0.0.0:3587                   0.0.0.0:0            LISTENING        2368     svchost.exe    
0x3eac7760         TCPv6    :::3587                        :::0                 LISTENING        2368     svchost.exe    
0x3ec97240         TCPv4    0.0.0.0:49154                  0.0.0.0:0            LISTENING        492      lsass.exe      
0x3ec99660         TCPv4    0.0.0.0:49154                  0.0.0.0:0            LISTENING        492      lsass.exe      
0x3ec99660         TCPv6    :::49154                       :::0                 LISTENING        492      lsass.exe      
0x3eca4230         TCPv4    0.0.0.0:49155                  0.0.0.0:0            LISTENING        876      svchost.exe    
0x3eca4230         TCPv6    :::49155                       :::0                 LISTENING        876      svchost.exe    
0x3eca4350         TCPv4    0.0.0.0:49155                  0.0.0.0:0            LISTENING        876      svchost.exe    
0x3ecb12e0         TCPv4    0.0.0.0:554                    0.0.0.0:0            LISTENING        1856     wmpnetwk.exe   
0x3ecb12e0         TCPv6    :::554                         :::0                 LISTENING        1856     wmpnetwk.exe   
0x3ecb1970         TCPv4    0.0.0.0:554                    0.0.0.0:0            LISTENING        1856     wmpnetwk.exe   
0x3ecb2ad0         TCPv4    0.0.0.0:2869                   0.0.0.0:0            LISTENING        4        System         
0x3ecb2ad0         TCPv6    :::2869                        :::0                 LISTENING        4        System         
0x3edd2160         TCPv4    0.0.0.0:5357                   0.0.0.0:0            LISTENING        4        System         
0x3edd2160         TCPv6    :::5357                        :::0                 LISTENING        4        System         
0x3ede4ef0         TCPv4    0.0.0.0:9                      0.0.0.0:0            LISTENING        1416     TCPSVCS.EXE    
0x3ede4ef0         TCPv6    :::9                           :::0                 LISTENING        1416     TCPSVCS.EXE    
0x3ede69a0         TCPv4    0.0.0.0:9                      0.0.0.0:0            LISTENING        1416     TCPSVCS.EXE    
0x3ede75d0         TCPv4    0.0.0.0:13                     0.0.0.0:0            LISTENING        1416     TCPSVCS.EXE    
0x3ede8010         TCPv4    0.0.0.0:7                      0.0.0.0:0            LISTENING        1416     TCPSVCS.EXE    
0x3ede86e0         TCPv4    0.0.0.0:7                      0.0.0.0:0            LISTENING        1416     TCPSVCS.EXE    
0x3ede86e0         TCPv6    :::7                           :::0                 LISTENING        1416     TCPSVCS.EXE    
0x3edfcad0         TCPv4    0.0.0.0:13                     0.0.0.0:0            LISTENING        1416     TCPSVCS.EXE    
0x3edfcad0         TCPv6    :::13                          :::0                 LISTENING        1416     TCPSVCS.EXE    
0x3ee90da0         TCPv4    0.0.0.0:10243                  0.0.0.0:0            LISTENING        4        System         
0x3ee90da0         TCPv6    :::10243                       :::0                 LISTENING        4        System         
0x3ef0c6c0         TCPv4    10.0.2.15:139                  0.0.0.0:0            LISTENING        4        System         
0x3ef4d010         TCPv4    0.0.0.0:135                    0.0.0.0:0            LISTENING        720      svchost.exe    
0x3ef4d010         TCPv6    :::135                         :::0                 LISTENING        720      svchost.exe    
0x3ef54350         TCPv4    0.0.0.0:49152                  0.0.0.0:0            LISTENING        424      wininit.exe    
0x3ef55cd0         TCPv4    0.0.0.0:135                    0.0.0.0:0            LISTENING        720      svchost.exe    
0x3ef5b440         TCPv4    0.0.0.0:49152                  0.0.0.0:0            LISTENING        424      wininit.exe    
0x3ef5b440         TCPv6    :::49152                       :::0                 LISTENING        424      wininit.exe    
0x3efaf010         TCPv4    0.0.0.0:49153                  0.0.0.0:0            LISTENING        816      svchost.exe    
0x3efb0ad0         TCPv4    0.0.0.0:49153                  0.0.0.0:0            LISTENING        816      svchost.exe    
0x3efb0ad0         TCPv6    :::49153                       :::0                 LISTENING        816      svchost.exe    
0x3ecb8cf0         TCPv6    -:0                            4800:ca00:80fa:ffff:4800:ca00:80fa:ffff:0 CLOSED           1        ?J3????       
0x3ed4d610         TCPv6    ::1:49163                      ::1:2869             CLOSED           1856     wmpnetwk.exe   
0x3eed7820         TCPv4    -:0                            56.155.212.1:0       CLOSED           1        ?J3????       
0x3ef5baa0         TCPv6    -:0                            389b:d401:80fa:ffff:389b:d401:80fa:ffff:0 CLOSED           1        ?J3????       
0x3ef80cf0         TCPv6    ::1:2869                       ::1:49163            CLOSED           4        System         
0x3f63cd70         UDPv4    10.0.2.15:59433                *:*                                   1372     svchost.exe    2019-12-11 14:16:09 UTC+0000
0x3f63dc20         UDPv6    fe80::b137:133f:8d0b:8cfe:1900 *:*                                   1372     svchost.exe    2019-12-11 14:16:09 UTC+0000
0x3f63dec0         UDPv4    127.0.0.1:59434                *:*                                   1372     svchost.exe    2019-12-11 14:16:09 UTC+0000
0x3f794010         TCPv6    -:0                            4800:ca00:80fa:ffff:4800:ca00:80fa:ffff:0 CLOSED           1044     svchost.exe    
0x3fcc4b60         UDPv4    0.0.0.0:0                      *:*                                   652      VBoxService.ex 2019-12-11 14:37:57 UTC+0000



############################################################
# TAB: Keys & Credentials
############################################################


============================================================
  PASSWORD HASHES (hashdump)
  Dump: MemoryDump_Lab1.raw
  Time: 2026-05-07 18:21:40
============================================================

Administrator:500:aad3b435b51404eeaad3b435b51404ee:31d6cfe0d16ae931b73c59d7e0c089c0:::
Guest:501:aad3b435b51404eeaad3b435b51404ee:31d6cfe0d16ae931b73c59d7e0c089c0:::
SmartNet:1001:aad3b435b51404eeaad3b435b51404ee:4943abb39473a6f32c11301f4987e7e0:::
HomeGroupUser$:1002:aad3b435b51404eeaad3b435b51404ee:f0fc3d257814e08fea06e63c5762ebd5:::
Alissa Simpson:1003:aad3b435b51404eeaad3b435b51404ee:f4ff64c8baac57d22f22edc681055ba6:::



============================================================
  LSA SECRETS (lsadump)
  Dump: MemoryDump_Lab1.raw
  Time: 2026-05-07 18:21:49
============================================================

DefaultPassword
0x00000000  00 00 00 00 00 00 00 00 00 00 00 00 00 00 00 00   ................
0x00000010  8b cb d4 97 ce 87 34 be ef 57 ed d4 19 4e 4e 3b   ......4..W...NN;

NL$KM
0x00000000  40 00 00 00 00 00 00 00 00 00 00 00 00 00 00 00   @...............
0x00000010  35 2a 44 ea 50 60 b8 2d 20 fa bb 39 ba ef ac 7c   5*D.P`.-...9...|
0x00000020  2a fe aa cb 21 fa 47 a0 28 59 1b f6 c2 a8 c7 ef   *...!.G.(Y......
0x00000030  65 81 a0 ca b4 c5 46 20 2f 91 cd 87 ab 02 c6 15   e.....F./.......
0x00000040  10 9c bc a4 2d 7b 51 b5 47 4f da a0 62 42 1c f8   ....-{Q.GO..bB..
0x00000050  c2 8c 50 6f 50 1b 28 56 f8 18 04 a2 15 62 51 75   ..PoP.(V.....bQu

DPAPI_SYSTEM
0x00000000  2c 00 00 00 00 00 00 00 00 00 00 00 00 00 00 00   ,...............
0x00000010  01 00 00 00 4a 64 0c 5a 19 96 fe ba 93 fb 25 37   ....Jd.Z......%7
0x00000020  9d b0 a9 f2 2a a2 8f 9f ed 41 10 32 94 dd 37 e9   ....*....A.2..7.
0x00000030  e8 a3 ae 00 5e 54 64 09 58 39 e9 04 00 00 00 00   ....^Td.X9......




============================================================
  CACHED CREDENTIALS (cachedump)
  Dump: MemoryDump_Lab1.raw
  Time: 2026-05-07 18:21:58
============================================================




============================================================
  CMDLINE SEARCH (cmdline)
  Dump: MemoryDump_Lab1.raw
  Time: 2026-05-07 18:22:12
============================================================

************************************************************************
System pid:      4
************************************************************************
smss.exe pid:    248
Command line : \SystemRoot\System32\smss.exe
************************************************************************
csrss.exe pid:    320
Command line : %SystemRoot%\system32\csrss.exe ObjectDirectory=\Windows SharedSection=1024,20480,768 Windows=On SubSystemType=Windows ServerDll=basesrv,1 ServerDll=winsrv:UserServerDllInitialization,3 ServerDll=winsrv:ConServerDllInitialization,2 ServerDll=sxssrv,4 ProfileControl=Off MaxRequestThreads=16
************************************************************************
csrss.exe pid:    368
Command line : %SystemRoot%\system32\csrss.exe ObjectDirectory=\Windows SharedSection=1024,20480,768 Windows=On SubSystemType=Windows ServerDll=basesrv,1 ServerDll=winsrv:UserServerDllInitialization,3 ServerDll=winsrv:ConServerDllInitialization,2 ServerDll=sxssrv,4 ProfileControl=Off MaxRequestThreads=16
************************************************************************
psxss.exe pid:    376
Command line : %SystemRoot%\system32\psxss.exe
************************************************************************
winlogon.exe pid:    416
Command line : winlogon.exe
************************************************************************
wininit.exe pid:    424
Command line : wininit.exe
************************************************************************
services.exe pid:    484
Command line : C:\Windows\system32\services.exe
************************************************************************
lsass.exe pid:    492
Command line : C:\Windows\system32\lsass.exe
************************************************************************
lsm.exe pid:    500
Command line : C:\Windows\system32\lsm.exe
************************************************************************
svchost.exe pid:    588
Command line : C:\Windows\system32\svchost.exe -k DcomLaunch
************************************************************************
VBoxService.ex pid:    652
Command line : C:\Windows\System32\VBoxService.exe
************************************************************************
svchost.exe pid:    720
Command line : C:\Windows\system32\svchost.exe -k RPCSS
************************************************************************
svchost.exe pid:    816
Command line : C:\Windows\System32\svchost.exe -k LocalServiceNetworkRestricted
************************************************************************
svchost.exe pid:    852
Command line : C:\Windows\System32\svchost.exe -k LocalSystemNetworkRestricted
************************************************************************
svchost.exe pid:    876
Command line : C:\Windows\system32\svchost.exe -k netsvcs
************************************************************************
svchost.exe pid:    472
Command line : C:\Windows\system32\svchost.exe -k LocalService
************************************************************************
svchost.exe pid:   1044
Command line : C:\Windows\system32\svchost.exe -k NetworkService
************************************************************************
spoolsv.exe pid:   1208
Command line : C:\Windows\System32\spoolsv.exe
************************************************************************
svchost.exe pid:   1248
Command line : C:\Windows\system32\svchost.exe -k LocalServiceNoNetwork
************************************************************************
svchost.exe pid:   1372
Command line : C:\Windows\system32\svchost.exe -k LocalServiceAndNoImpersonation
************************************************************************
TCPSVCS.EXE pid:   1416
Command line : C:\Windows\System32\tcpsvcs.exe
************************************************************************
sppsvc.exe pid:   1508
Command line : C:\Windows\system32\sppsvc.exe
************************************************************************
svchost.exe pid:    948
Command line : C:\Windows\System32\svchost.exe -k secsvcs
************************************************************************
wmpnetwk.exe pid:   1856
Command line : "C:\Program Files\Windows Media Player\wmpnetwk.exe"
************************************************************************
SearchIndexer. pid:    480
Command line : C:\Windows\system32\SearchIndexer.exe /Embedding
************************************************************************
taskhost.exe pid:    296
Command line : "taskhost.exe"
************************************************************************
dwm.exe pid:   1988
Command line : "C:\Windows\system32\Dwm.exe"
************************************************************************
explorer.exe pid:    604
Command line : C:\Windows\Explorer.EXE
************************************************************************
VBoxTray.exe pid:   1844
Command line : "C:\Windows\System32\VBoxTray.exe" 
************************************************************************
audiodg.exe pid:   2064
Command line : C:\Windows\system32\AUDIODG.EXE 0x20c
************************************************************************
svchost.exe pid:   2368
Command line : C:\Windows\System32\svchost.exe -k LocalServicePeerNet
************************************************************************
cmd.exe pid:   1984
Command line : "C:\Windows\system32\cmd.exe" 
************************************************************************
conhost.exe pid:   2692
Command line : \??\C:\Windows\system32\conhost.exe
************************************************************************
mspaint.exe pid:   2424
Command line : "C:\Windows\system32\mspaint.exe" 
************************************************************************
svchost.exe pid:   2660
Command line : C:\Windows\system32\svchost.exe -k imgsvc
************************************************************************
csrss.exe pid:   2760
Command line : %SystemRoot%\system32\csrss.exe ObjectDirectory=\Windows SharedSection=1024,20480,768 Windows=On SubSystemType=Windows ServerDll=basesrv,1 ServerDll=winsrv:UserServerDllInitialization,3 ServerDll=winsrv:ConServerDllInitialization,2 ServerDll=sxssrv,4 ProfileControl=Off MaxRequestThreads=16
************************************************************************
winlogon.exe pid:   2808
Command line : winlogon.exe
************************************************************************
taskhost.exe pid:   2908
Command line : "taskhost.exe"
************************************************************************
dwm.exe pid:   3004
Command line : "C:\Windows\system32\Dwm.exe"
************************************************************************
explorer.exe pid:   2504
Command line : C:\Windows\Explorer.EXE
************************************************************************
VBoxTray.exe pid:   2304
Command line : "C:\Windows\System32\VBoxTray.exe" 
************************************************************************
SearchProtocol pid:   2524
Command line : "C:\Windows\system32\SearchProtocolHost.exe" Global\UsGthrFltPipeMssGthrPipe_S-1-5-21-3073570648-3149397540-2269648332-10032_ Global\UsGthrCtrlFltPipeMssGthrPipe_S-1-5-21-3073570648-3149397540-2269648332-10032 1 -2147483646 "Software\Microsoft\Windows Search" "Mozilla/4.0 (compatible; MSIE 6.0; Windows NT; MS Search 4.0 Robot)" "C:\ProgramData\Microsoft\Search\Data\Temp\usgthrsvc" "DownLevelDaemon"  "1"
************************************************************************
SearchFilterHo pid:   1720
Command line : "C:\Windows\system32\SearchFilterHost.exe" 0 508 512 520 65536 516 
************************************************************************
WinRAR.exe pid:   1512
Command line : "C:\Program Files\WinRAR\WinRAR.exe" "C:\Users\Alissa Simpson\Documents\Important.rar"
************************************************************************
SearchProtocol pid:   2868
Command line : "C:\Windows\system32\SearchProtocolHost.exe" Global\UsGthrFltPipeMssGthrPipe3_ Global\UsGthrCtrlFltPipeMssGthrPipe3 1 -2147483646 "Software\Microsoft\Windows Search" "Mozilla/4.0 (compatible; MSIE 6.0; Windows NT; MS Search 4.0 Robot)" "C:\ProgramData\Microsoft\Search\Data\Temp\usgthrsvc" "DownLevelDaemon" 
************************************************************************
DumpIt.exe pid:    796
Command line : "C:\Users\SmartNet\Downloads\DumpIt\DumpIt.exe" 
************************************************************************
conhost.exe pid:   2260
Command line : \??\C:\Windows\system32\conhost.exe



############################################################
# TAB: YARA Scan
############################################################


============================================================
  YARA SCAN RESULTS
  Dump: MemoryDump_Lab1.raw
  Time: 2026-05-07 18:22:12
============================================================

  Rule: SuspiciousProcess
    Description: Detects suspicious process names and strings
    Matched strings:
      Offset 0x00281AF5 | $mz
      Offset 0x004BF000 | $mz
      Offset 0x00788FD0 | $mz
      Offset 0x00BC2000 | $mz
      Offset 0x00BE0000 | $mz
      Offset 0x00BEF000 | $mz
      Offset 0x00BF8000 | $mz
      Offset 0x00CA568A | $mz
      Offset 0x00DE133F | $mz
      Offset 0x01129000 | $mz
      Offset 0x0120D974 | $mz
      Offset 0x0180184B | $mz
      Offset 0x018FCA24 | $mz
      Offset 0x01ABDD77 | $mz
      Offset 0x01C2A000 | $mz
      Offset 0x01C71C09 | $mz
      Offset 0x01D1B944 | $mz
      Offset 0x01DC0543 | $mz
      Offset 0x01DDAF14 | $mz
      Offset 0x01DF51D0 | $mz
      Offset 0x01E7CF34 | $mz
      Offset 0x01F95000 | $mz
      Offset 0x01FFD000 | $mz
      Offset 0x020B3000 | $mz
      Offset 0x02118D04 | $mz
      Offset 0x0221A29E | $mz
      Offset 0x02510000 | $mz
      Offset 0x0261F000 | $mz
      Offset 0x026808EB | $mz
      Offset 0x026A2F85 | $mz
      Offset 0x02727143 | $mz
      Offset 0x028CEECD | $mz
      Offset 0x028CEED5 | $mz
      Offset 0x02962312 | $mz
      Offset 0x029CE5CF | $mz
      Offset 0x02A125BE | $mz
      Offset 0x02B0D64B | $mz
      Offset 0x02C09000 | $mz
      Offset 0x02D3B000 | $mz
      Offset 0x02D9B274 | $mz
      Offset 0x02F81141 | $mz
      Offset 0x03019000 | $mz
      Offset 0x0301C000 | $mz
      Offset 0x03030000 | $mz
      Offset 0x03089000 | $mz
      Offset 0x030AD000 | $mz
      Offset 0x030C160C | $mz
      Offset 0x030C1AF6 | $mz
      Offset 0x0316D000 | $mz
      Offset 0x03211000 | $mz
────────────────────────────────────────────────────────────
  Total YARA matches: 1
────────────────────────────────────────────────────────────



############################################################
# TAB: Summary
############################################################

============================================================
  FORENSIC ANALYSIS SUMMARY
  Dump: MemoryDump_Lab1.raw
  Time: 2026-05-07 18:22:15
============================================================

  [PROCESSES]
    Total process entries detected : 2716
    Malfind output lines (suspicious): 33

  [NETWORK]
    Connection / socket entries     : 150

  [CREDENTIALS]
    Credential-related entries      : 108

  [YARA]
    YARA rule matches               : 1

============================================================
  End of summary.
============================================================

